
main.elf:     file format elf32-littlearm

SYMBOL TABLE:
08000000 l    d  .isr_vector	00000000 .isr_vector
080000c4 l    d  .text	00000000 .text
20000000 l    d  .data	00000000 .data
20000008 l    d  .bss	00000000 .bss
00000000 l    d  .comment	00000000 .comment
00000000 l    d  .ARM.attributes	00000000 .ARM.attributes
00000000 l    d  .debug_aranges	00000000 .debug_aranges
00000000 l    d  .debug_info	00000000 .debug_info
00000000 l    d  .debug_abbrev	00000000 .debug_abbrev
00000000 l    d  .debug_line	00000000 .debug_line
00000000 l    d  .debug_frame	00000000 .debug_frame
00000000 l    d  .debug_str	00000000 .debug_str
00000000 l    d  .debug_loclists	00000000 .debug_loclists
00000000 l    d  .debug_rnglists	00000000 .debug_rnglists
00000000 l    d  .debug_line_str	00000000 .debug_line_str
00000000 l    df *ABS*	00000000 ccWiUzg2.o
f108f85f l       *ABS*	00000000 BootRAM
080024d0 l       .text	00000000 LoopCopyDataInit
080024c8 l       .text	00000000 CopyDataInit
080024e4 l       .text	00000000 LoopFillZerobss
080024de l       .text	00000000 FillZerobss
080024f6 l       .text	00000000 LoopForever
08002510 l       .text	00000000 Infinite_Loop
00000000 l    df *ABS*	00000000 stm32f0xx_exti.c
00000000 l    df *ABS*	00000000 stm32f0xx_gpio.c
00000000 l    df *ABS*	00000000 stm32f0xx_i2c.c
00000000 l    df *ABS*	00000000 stm32f0xx_rcc.c
08002514 l     O .text	00000010 APBAHBPrescTable
00000000 l    df *ABS*	00000000 _udivsi3.o
08000d48 l       .text	00000000 .udivsi3_skip_div0_test
00000000 l    df *ABS*	00000000 _dvmd_tls.o
00000000 l    df *ABS*	00000000 addsf3.c
00000000 l    df *ABS*	00000000 divsf3.c
00000000 l    df *ABS*	00000000 mulsf3.c
00000000 l    df *ABS*	00000000 floatsisf.c
00000000 l    df *ABS*	00000000 muldf3.c
00000000 l    df *ABS*	00000000 extendsfdf2.c
00000000 l    df *ABS*	00000000 truncdfsf2.c
00000000 l    df *ABS*	00000000 _clzsi2.o
00000000 l    df *ABS*	00000000 memset.c
00000000 l    df *ABS*	00000000 init.c
00000000 l    df *ABS*	00000000 main.c
20000028 l     O .bss	00000004 TimingDelay
00000000 l    df *ABS*	00000000 system_stm32f0xx.c
00000000 l    df *ABS*	00000000 stm32f0xx_nucleo.c
00000000 l    df *ABS*	00000000 stm32f0xx_it.c
00000000 l    df *ABS*	00000000 Peripheral_Init.c
00000000 l    df *ABS*	00000000 crti.o
00000000 l    df *ABS*	00000000 crtn.o
080008e8 g     F .text	0000001c RCC_HSICmd
08000970 g     F .text	00000018 RCC_LSEDriveConfig
080009c4 g     F .text	00000024 RCC_PLLCmd
08000c80 g     F .text	00000018 RCC_AHBPeriphResetCmd
08000378 g     F .text	00000022 GPIO_PinAFConfig
08000d3c g     F .text	0000000c RCC_ClearITPendingBit
08000348 g     F .text	0000000e GPIO_ReadOutputDataBit
08002510  w    F .text	00000002 TIM1_CC_IRQHandler
080007c0 g     F .text	00000006 I2C_ReceiveData
080020be g     F .text	00000002 HardFault_Handler
08002510  w    F .text	00000002 ADC1_COMP_IRQHandler
080020c4 g     F .text	00000008 SysTick_Handler
08000a20 g     F .text	0000000c RCC_MCOConfig
080004f8 g     F .text	00000020 I2C_OwnAddress2Config
08002510  w    F .text	00000002 PVD_IRQHandler
08000ab0 g     F .text	00000018 RCC_CECCLKConfig
080025b8 g       .text	00000000 _sidata
080020c2 g     F .text	00000002 PendSV_Handler
080020bc g     F .text	00000002 NMI_Handler
20000034 g       .bss	00000000 __exidx_end
08002510  w    F .text	00000002 I2C1_IRQHandler
08000cc8 g     F .text	00000018 RCC_ITConfig
080025b8 g       .text	00000000 _etext
20000008 g       .bss	00000000 _sbss
20000024 g     O .bss	00000001 BlinkSpeed
08000a2c g     F .text	00000014 RCC_SYSCLKConfig
08000e60 g     F .text	00000340 .hidden __aeabi_fadd
08000740 g     F .text	0000001c I2C_TimeoutBConfig
080000c4 g     F .text	00000020 EXTI_DeInit
08000898 g     F .text	0000003c RCC_WaitForHSEStartUp
08000538 g     F .text	00000020 I2C_SlaveByteControlCmd
20000000 g     O .data	00000004 BUTTON_PORT
08000c14 g     F .text	00000024 RCC_BackupResetCmd
08000484 g     F .text	00000012 I2C_ITConfig
080009fc g     F .text	00000024 RCC_ClockSecuritySystemCmd
08000d14 g     F .text	00000014 RCC_ClearFlag
0800063c g     F .text	00000020 I2C_10BitAddressHeaderCmd
08000888 g     F .text	00000010 RCC_HSEConfig
08000d48 g     F .text	0000010a .hidden __udivsi3
08001644 g     F .text	00000094 .hidden __aeabi_i2f
080006b4 g     F .text	00000020 I2C_SMBusAlertCmd
08000c50 g     F .text	00000018 RCC_APB2PeriphClockCmd
080007c8 g     F .text	00000012 I2C_DMACmd
08000254 g     F .text	000000a8 GPIO_Init
080009a4 g     F .text	00000020 RCC_PLLConfig
08000a7c g     F .text	00000034 RCC_ADCCLKConfig
20000000 g       .data	00000000 _sdata
08002510  w    F .text	00000002 SPI1_IRQHandler
08000374 g     F .text	00000004 GPIO_Write
08002510  w    F .text	00000002 TIM6_DAC_IRQHandler
08000358 g     F .text	00000006 GPIO_ReadOutputData
08000950 g     F .text	00000020 RCC_LSEConfig
0800075c g     F .text	00000020 I2C_CalculatePEC
08000bf0 g     F .text	00000024 RCC_RTCCLKCmd
08000c68 g     F .text	00000018 RCC_APB1PeriphClockCmd
08000d28 g     F .text	00000014 RCC_GetITStatus
20000034 g       .bss	00000000 __exidx_start
080016d8 g     F .text	00000598 .hidden __aeabi_dmul
08000568 g     F .text	00000020 I2C_10BitAddressingModeCmd
08001ef0 g     F .text	00000048 __libc_init_array
080021f0 g     F .text	000000b0 I2C_receive
08000c38 g     F .text	00000018 RCC_AHBPeriphClockCmd
080007bc g     F .text	00000004 I2C_SendData
08002510  w    F .text	00000002 EXTI2_3_IRQHandler
080025a0 g     F .text	00000000 _init
08002510  w    F .text	00000002 I2C2_IRQHandler
08001f38 g     F .text	00000040 System_Clock_Init
08002108 g     F .text	00000080 I2C_Settings_Init
080003d4 g     F .text	00000064 I2C_Init
08002510  w    F .text	00000002 TIM17_IRQHandler
08001d00 g     F .text	0000010c .hidden __aeabi_d2f
080001a4 g     F .text	0000000c EXTI_ClearITPendingBit
08000710 g     F .text	00000020 I2C_IdleClockTimeoutCmd
08002510  w    F .text	00000002 RTC_IRQHandler
20000034 g       .bss	00000000 _ebss
080024c0  w    F .text	00000038 Reset_Handler
08000340 g     F .text	00000006 GPIO_ReadInputData
2000002c g     O .bss	00000008 ctx
08000ce0 g     F .text	00000034 RCC_GetFlagStatus
080006d4 g     F .text	00000020 I2C_ClockTimeoutCmd
08000360 g     F .text	00000004 GPIO_SetBits
08000168 g     F .text	00000014 EXTI_GetFlagStatus
08000a40 g     F .text	00000010 RCC_GetSYSCLKSource
08000368 g     F .text	0000000c GPIO_WriteBit
080005fc g     F .text	00000020 I2C_GenerateSTART
08000438 g     F .text	00000016 I2C_StructInit
08000af8 g     F .text	000000e8 RCC_GetClocksFreq
08001e0c g     F .text	0000003c .hidden __clzsi2
08002510  w    F .text	00000002 TIM16_IRQHandler
08000158 g     F .text	00000010 EXTI_GenerateSWInterrupt
20000004 g     O .data	00000004 GPIO_PORT
08002510  w    F .text	00000002 TIM3_IRQHandler
08002510  w    F .text	00000002 RCC_IRQHandler
080020cc g     F .text	0000003c EXTI4_15_IRQHandler
20000008 g       .bss	00000000 _bss
08002510  w    F .text	00000002 DMA1_Channel1_IRQHandler
08002510 g       .text	00000002 Default_Handler
08000694 g     F .text	00000020 I2C_TransferHandling
080006f4 g     F .text	0000001a I2C_ExtendedClockTimeoutCmd
0800017c g     F .text	0000000c EXTI_ClearFlag
080007dc g     F .text	0000000e I2C_GetFlagStatus
08000be0 g     F .text	00000010 RCC_RTCCLKConfig
08002510  w    F .text	00000002 CEC_IRQHandler
08000918 g     F .text	0000001c RCC_HSI14Cmd
08002340 g     F .text	00000180 getICM20948_ACCEL_GYRO_TEMPdata
08002510  w    F .text	00000002 TIM14_IRQHandler
08002510  w    F .text	00000002 DMA1_Channel4_5_IRQHandler
080000e4 g     F .text	00000064 EXTI_Init
0800039c g     F .text	00000038 I2C_DeInit
08000450 g     F .text	00000014 I2C_Cmd
08000364 g     F .text	00000004 GPIO_ResetBits
080011a0 g     F .text	00000224 .hidden __aeabi_fdiv
080007ec g     F .text	00000004 I2C_ClearFlag
080004b8 g     F .text	00000020 I2C_StopModeCmd
08002510  w    F .text	00000002 TIM15_IRQHandler
08002510  w    F .text	00000002 EXTI0_1_IRQHandler
08000e5c  w    F .text	00000002 .hidden __aeabi_ldiv0
08000934 g     F .text	0000001c RCC_HSI14ADCRequestCmd
080005a8 g     F .text	00000020 I2C_ReloadCmd
08000188 g     F .text	0000001c EXTI_GetITStatus
08002510  w    F .text	00000002 SPI2_IRQHandler
08001e48 g     F .text	000000a6 memset
080008d4 g     F .text	00000014 RCC_AdjustHSICalibrationValue
08001f90 g     F .text	00000038 main
08000688 g     F .text	0000000a I2C_GetTransferDirection
08000d48 g     F .text	00000000 .hidden __aeabi_uidiv
080020c0 g     F .text	00000002 SVC_Handler
080022a0 g     F .text	000000a0 ICM20948_init
08000148 g     F .text	0000000e EXTI_StructInit
08000588 g     F .text	00000020 I2C_AutoEndCmd
08000518 g     F .text	00000020 I2C_GeneralCallCmd
08000464 g     F .text	00000020 I2C_SoftwareResetCmd
08001fdc g     F .text	000000b4 SystemInit
08000904 g     F .text	00000014 RCC_AdjustHSI14CalibrationValue
080001b0 g     F .text	000000a4 GPIO_DeInit
080025ac g     F .text	00000000 _fini
0800077c g     F .text	00000020 I2C_PECRequestCmd
080005dc g     F .text	00000020 I2C_MasterRequestConfig
08000828 g     F .text	00000060 RCC_DeInit
080013c4 g     F .text	00000280 .hidden __aeabi_fmul
08002510  w    F .text	00000002 TS_IRQHandler
08002188 g     F .text	00000068 I2C_transmit
08002510  w    F .text	00000002 WWDG_IRQHandler
08000cb0 g     F .text	00000018 RCC_APB1PeriphResetCmd
20000000 g       .data	00000000 _data
080009e8 g     F .text	00000014 RCC_PREDIV1Config
08001f78 g     F .text	00000018 Delay
080007f0 g     F .text	00000032 I2C_GetITStatus
080020a4 g     F .text	00000018 STM_EVAL_PBGetState
08002510  w    F .text	00000002 TIM2_IRQHandler
08000498 g     F .text	00000020 I2C_StretchClockCmd
080002fc g     F .text	00000010 GPIO_StructInit
08002510  w    F .text	00000002 DMA1_Channel2_3_IRQHandler
08002090 g     F .text	00000014 STM_EVAL_LEDToggle
080005c8 g     F .text	00000014 I2C_NumberOfBytesConfig
20002000 g       *ABS*	00000000 _estack
08000e54 g     F .text	00000008 .hidden __aeabi_uidivmod
080007a4 g     F .text	00000016 I2C_ReadRegister
20000008 g       .data	00000000 _edata
08000730 g     F .text	00000010 I2C_TimeoutAConfig
08002510  w    F .text	00000002 USART2_IRQHandler
08000000 g     O .isr_vector	00000000 g_pfnVectors
0800079c g     F .text	00000006 I2C_GetPEC
20000008 g     O .bss	0000001c RCC_Clocks
08000ae0 g     F .text	00000018 RCC_USARTCLKConfig
080004d8 g     F .text	00000020 I2C_DualAddressCmd
08000558 g     F .text	00000010 I2C_SlaveAddressConfig
08001fc8 g     F .text	00000014 TimingDelay_Decrement
08000e5c  w    F .text	00000002 .hidden __aeabi_idiv0
08000ac8 g     F .text	00000018 RCC_I2CCLKConfig
08000a64 g     F .text	00000018 RCC_PCLKConfig
08002510  w    F .text	00000002 FLASH_IRQHandler
0800030c g     F .text	00000024 GPIO_PinLockConfig
08002510  w    F .text	00000002 USART1_IRQHandler
08000988 g     F .text	0000001c RCC_LSICmd
0800065c g     F .text	00000020 I2C_AcknowledgeConfig
08000c98 g     F .text	00000018 RCC_APB2PeriphResetCmd
0800061c g     F .text	00000020 I2C_GenerateSTOP
08002510  w    F .text	00000002 TIM1_BRK_UP_TRG_COM_IRQHandler
08001c70 g     F .text	00000090 .hidden __aeabi_f2d
08000824 g     F .text	00000004 I2C_ClearITPendingBit
08000330 g     F .text	0000000e GPIO_ReadInputDataBit
0800067c g     F .text	0000000a I2C_GetAddressMatched
08000a50 g     F .text	00000014 RCC_HCLKConfig



Disassembly of section .text:

080000c4 <EXTI_DeInit>:
  * @param  None
  * @retval None
  */
void EXTI_DeInit(void)
{
  EXTI->IMR = 0x0F940000;
 80000c4:	4b04      	ldr	r3, [pc, #16]	@ (80000d8 <EXTI_DeInit+0x14>)
 80000c6:	4a05      	ldr	r2, [pc, #20]	@ (80000dc <EXTI_DeInit+0x18>)
 80000c8:	601a      	str	r2, [r3, #0]
  EXTI->EMR = 0x00000000;
 80000ca:	2200      	movs	r2, #0
 80000cc:	605a      	str	r2, [r3, #4]
  EXTI->RTSR = 0x00000000;
 80000ce:	609a      	str	r2, [r3, #8]
  EXTI->FTSR = 0x00000000;
 80000d0:	60da      	str	r2, [r3, #12]
  EXTI->PR = 0x006BFFFF;
 80000d2:	4a03      	ldr	r2, [pc, #12]	@ (80000e0 <EXTI_DeInit+0x1c>)
 80000d4:	615a      	str	r2, [r3, #20]
}
 80000d6:	4770      	bx	lr
 80000d8:	40010400 	.word	0x40010400
 80000dc:	0f940000 	.word	0x0f940000
 80000e0:	006bffff 	.word	0x006bffff

080000e4 <EXTI_Init>:
  {
    /* Clear EXTI line configuration */
    EXTI->IMR &= ~EXTI_InitStruct->EXTI_Line;
    EXTI->EMR &= ~EXTI_InitStruct->EXTI_Line;

    tmp += EXTI_InitStruct->EXTI_Mode;
 80000e4:	4b17      	ldr	r3, [pc, #92]	@ (8000144 <EXTI_Init+0x60>)
{
 80000e6:	b530      	push	{r4, r5, lr}
    tmp += EXTI_InitStruct->EXTI_Mode;
 80000e8:	469c      	mov	ip, r3
 80000ea:	7902      	ldrb	r2, [r0, #4]
    EXTI->IMR &= ~EXTI_InitStruct->EXTI_Line;
 80000ec:	6804      	ldr	r4, [r0, #0]
  if (EXTI_InitStruct->EXTI_LineCmd != DISABLE)
 80000ee:	7983      	ldrb	r3, [r0, #6]
    EXTI->IMR &= ~EXTI_InitStruct->EXTI_Line;
 80000f0:	43e1      	mvns	r1, r4
    tmp += EXTI_InitStruct->EXTI_Mode;
 80000f2:	4462      	add	r2, ip
  if (EXTI_InitStruct->EXTI_LineCmd != DISABLE)
 80000f4:	2b00      	cmp	r3, #0
 80000f6:	d01a      	beq.n	800012e <EXTI_Init+0x4a>
    EXTI->IMR &= ~EXTI_InitStruct->EXTI_Line;
 80000f8:	4663      	mov	r3, ip
 80000fa:	681d      	ldr	r5, [r3, #0]
 80000fc:	400d      	ands	r5, r1
 80000fe:	601d      	str	r5, [r3, #0]
    EXTI->EMR &= ~EXTI_InitStruct->EXTI_Line;
 8000100:	685d      	ldr	r5, [r3, #4]
 8000102:	4029      	ands	r1, r5
 8000104:	6059      	str	r1, [r3, #4]

    *(__IO uint32_t *) tmp |= EXTI_InitStruct->EXTI_Line;
 8000106:	6811      	ldr	r1, [r2, #0]
 8000108:	4321      	orrs	r1, r4
 800010a:	6011      	str	r1, [r2, #0]

    /* Clear Rising Falling edge configuration */
    EXTI->RTSR &= ~EXTI_InitStruct->EXTI_Line;
 800010c:	6899      	ldr	r1, [r3, #8]
 800010e:	6802      	ldr	r2, [r0, #0]
 8000110:	4391      	bics	r1, r2
 8000112:	6099      	str	r1, [r3, #8]
    EXTI->FTSR &= ~EXTI_InitStruct->EXTI_Line;
 8000114:	68d9      	ldr	r1, [r3, #12]
 8000116:	4391      	bics	r1, r2
 8000118:	60d9      	str	r1, [r3, #12]

    /* Select the trigger for the selected interrupts */
    if (EXTI_InitStruct->EXTI_Trigger == EXTI_Trigger_Rising_Falling)
 800011a:	7941      	ldrb	r1, [r0, #5]
 800011c:	2910      	cmp	r1, #16
 800011e:	d00a      	beq.n	8000136 <EXTI_Init+0x52>
      EXTI->FTSR |= EXTI_InitStruct->EXTI_Line;
    }
    else
    {
      tmp = (uint32_t)EXTI_BASE;
      tmp += EXTI_InitStruct->EXTI_Trigger;
 8000120:	4b08      	ldr	r3, [pc, #32]	@ (8000144 <EXTI_Init+0x60>)
 8000122:	469c      	mov	ip, r3
 8000124:	4461      	add	r1, ip

      *(__IO uint32_t *) tmp |= EXTI_InitStruct->EXTI_Line;
 8000126:	680b      	ldr	r3, [r1, #0]
 8000128:	431a      	orrs	r2, r3
 800012a:	600a      	str	r2, [r1, #0]
 800012c:	e002      	b.n	8000134 <EXTI_Init+0x50>
  else
  {
    tmp += EXTI_InitStruct->EXTI_Mode;

    /* Disable the selected external lines */
    *(__IO uint32_t *) tmp &= ~EXTI_InitStruct->EXTI_Line;
 800012e:	6813      	ldr	r3, [r2, #0]
 8000130:	4019      	ands	r1, r3
 8000132:	6011      	str	r1, [r2, #0]
  }
}
 8000134:	bd30      	pop	{r4, r5, pc}
      EXTI->RTSR |= EXTI_InitStruct->EXTI_Line;
 8000136:	6899      	ldr	r1, [r3, #8]
 8000138:	4311      	orrs	r1, r2
 800013a:	6099      	str	r1, [r3, #8]
      EXTI->FTSR |= EXTI_InitStruct->EXTI_Line;
 800013c:	68d9      	ldr	r1, [r3, #12]
 800013e:	430a      	orrs	r2, r1
 8000140:	60da      	str	r2, [r3, #12]
 8000142:	e7f7      	b.n	8000134 <EXTI_Init+0x50>
 8000144:	40010400 	.word	0x40010400

08000148 <EXTI_StructInit>:
  * @retval None
  */
void EXTI_StructInit(EXTI_InitTypeDef* EXTI_InitStruct)
{
  EXTI_InitStruct->EXTI_Line = EXTI_LINENONE;
  EXTI_InitStruct->EXTI_Mode = EXTI_Mode_Interrupt;
 8000148:	22c0      	movs	r2, #192	@ 0xc0
  EXTI_InitStruct->EXTI_Line = EXTI_LINENONE;
 800014a:	2300      	movs	r3, #0
  EXTI_InitStruct->EXTI_Mode = EXTI_Mode_Interrupt;
 800014c:	0112      	lsls	r2, r2, #4
  EXTI_InitStruct->EXTI_Line = EXTI_LINENONE;
 800014e:	6003      	str	r3, [r0, #0]
  EXTI_InitStruct->EXTI_Mode = EXTI_Mode_Interrupt;
 8000150:	8082      	strh	r2, [r0, #4]
  EXTI_InitStruct->EXTI_Trigger = EXTI_Trigger_Falling;
  EXTI_InitStruct->EXTI_LineCmd = DISABLE;
 8000152:	7183      	strb	r3, [r0, #6]
}
 8000154:	4770      	bx	lr
 8000156:	46c0      	nop			@ (mov r8, r8)

08000158 <EXTI_GenerateSWInterrupt>:
void EXTI_GenerateSWInterrupt(uint32_t EXTI_Line)
{
  /* Check the parameters */
  assert_param(IS_EXTI_LINE(EXTI_Line));

  EXTI->SWIER |= EXTI_Line;
 8000158:	4a02      	ldr	r2, [pc, #8]	@ (8000164 <EXTI_GenerateSWInterrupt+0xc>)
 800015a:	6913      	ldr	r3, [r2, #16]
 800015c:	4303      	orrs	r3, r0
 800015e:	6113      	str	r3, [r2, #16]
}
 8000160:	4770      	bx	lr
 8000162:	46c0      	nop			@ (mov r8, r8)
 8000164:	40010400 	.word	0x40010400

08000168 <EXTI_GetFlagStatus>:
{
   FlagStatus bitstatus = RESET;
  /* Check the parameters */
  assert_param(IS_GET_EXTI_LINE(EXTI_Line));

  if ((EXTI->PR & EXTI_Line) != (uint32_t)RESET)
 8000168:	4b03      	ldr	r3, [pc, #12]	@ (8000178 <EXTI_GetFlagStatus+0x10>)
 800016a:	695b      	ldr	r3, [r3, #20]
 800016c:	4018      	ands	r0, r3
 800016e:	1e43      	subs	r3, r0, #1
 8000170:	4198      	sbcs	r0, r3
  }
  else
  {
    bitstatus = RESET;
  }
  return bitstatus;
 8000172:	b2c0      	uxtb	r0, r0
}
 8000174:	4770      	bx	lr
 8000176:	46c0      	nop			@ (mov r8, r8)
 8000178:	40010400 	.word	0x40010400

0800017c <EXTI_ClearFlag>:
void EXTI_ClearFlag(uint32_t EXTI_Line)
{
  /* Check the parameters */
  assert_param(IS_EXTI_LINE(EXTI_Line));

  EXTI->PR = EXTI_Line;
 800017c:	4b01      	ldr	r3, [pc, #4]	@ (8000184 <EXTI_ClearFlag+0x8>)
 800017e:	6158      	str	r0, [r3, #20]
}
 8000180:	4770      	bx	lr
 8000182:	46c0      	nop			@ (mov r8, r8)
 8000184:	40010400 	.word	0x40010400

08000188 <EXTI_GetITStatus>:
  * @param  EXTI_Line: specifies the EXTI line to check.
  *          This parameter can be EXTI_Linex where x can be (0..27).
  * @retval The new state of EXTI_Line (SET or RESET).
  */
ITStatus EXTI_GetITStatus(uint32_t EXTI_Line)
{
 8000188:	0003      	movs	r3, r0
  ITStatus bitstatus = RESET;
  uint32_t enablestatus = 0;
  /* Check the parameters */
  assert_param(IS_GET_EXTI_LINE(EXTI_Line));

  enablestatus =  EXTI->IMR & EXTI_Line;
 800018a:	4a05      	ldr	r2, [pc, #20]	@ (80001a0 <EXTI_GetITStatus+0x18>)
  {
    bitstatus = SET;
  }
  else
  {
    bitstatus = RESET;
 800018c:	2000      	movs	r0, #0
  enablestatus =  EXTI->IMR & EXTI_Line;
 800018e:	6811      	ldr	r1, [r2, #0]
  if (((EXTI->PR & EXTI_Line) != (uint32_t)RESET) && (enablestatus != (uint32_t)RESET))
 8000190:	6952      	ldr	r2, [r2, #20]
 8000192:	4213      	tst	r3, r2
 8000194:	d003      	beq.n	800019e <EXTI_GetITStatus+0x16>
  enablestatus =  EXTI->IMR & EXTI_Line;
 8000196:	400b      	ands	r3, r1
  if (((EXTI->PR & EXTI_Line) != (uint32_t)RESET) && (enablestatus != (uint32_t)RESET))
 8000198:	1e5a      	subs	r2, r3, #1
 800019a:	4193      	sbcs	r3, r2
 800019c:	b2d8      	uxtb	r0, r3
  }
  return bitstatus;
  
}
 800019e:	4770      	bx	lr
 80001a0:	40010400 	.word	0x40010400

080001a4 <EXTI_ClearITPendingBit>:
  * @brief  Clears the EXTI's line pending bits.
  * @param  EXTI_Line: specifies the EXTI lines to clear.
  *          This parameter can be any combination of EXTI_Linex where x can be (0..27).
  * @retval None
  */
void EXTI_ClearITPendingBit(uint32_t EXTI_Line)
 80001a4:	4b01      	ldr	r3, [pc, #4]	@ (80001ac <EXTI_ClearITPendingBit+0x8>)
 80001a6:	6158      	str	r0, [r3, #20]
 80001a8:	4770      	bx	lr
 80001aa:	46c0      	nop			@ (mov r8, r8)
 80001ac:	40010400 	.word	0x40010400

080001b0 <GPIO_DeInit>:
void GPIO_DeInit(GPIO_TypeDef* GPIOx)
{
  /* Check the parameters */
  assert_param(IS_GPIO_ALL_PERIPH(GPIOx));

  if(GPIOx == GPIOA)
 80001b0:	2390      	movs	r3, #144	@ 0x90
{
 80001b2:	b510      	push	{r4, lr}
  if(GPIOx == GPIOA)
 80001b4:	05db      	lsls	r3, r3, #23
 80001b6:	4298      	cmp	r0, r3
 80001b8:	d017      	beq.n	80001ea <GPIO_DeInit+0x3a>
  {
    RCC_AHBPeriphResetCmd(RCC_AHBPeriph_GPIOA, ENABLE);
    RCC_AHBPeriphResetCmd(RCC_AHBPeriph_GPIOA, DISABLE);
  }
  else if(GPIOx == GPIOB)
 80001ba:	4b22      	ldr	r3, [pc, #136]	@ (8000244 <GPIO_DeInit+0x94>)
 80001bc:	4298      	cmp	r0, r3
 80001be:	d01f      	beq.n	8000200 <GPIO_DeInit+0x50>
  {
    RCC_AHBPeriphResetCmd(RCC_AHBPeriph_GPIOB, ENABLE);
    RCC_AHBPeriphResetCmd(RCC_AHBPeriph_GPIOB, DISABLE);
  }
  else if(GPIOx == GPIOC)
 80001c0:	4b21      	ldr	r3, [pc, #132]	@ (8000248 <GPIO_DeInit+0x98>)
 80001c2:	4298      	cmp	r0, r3
 80001c4:	d027      	beq.n	8000216 <GPIO_DeInit+0x66>
  {
    RCC_AHBPeriphResetCmd(RCC_AHBPeriph_GPIOC, ENABLE);
    RCC_AHBPeriphResetCmd(RCC_AHBPeriph_GPIOC, DISABLE);
  }
  else if(GPIOx == GPIOD)
 80001c6:	4b21      	ldr	r3, [pc, #132]	@ (800024c <GPIO_DeInit+0x9c>)
 80001c8:	4298      	cmp	r0, r3
 80001ca:	d003      	beq.n	80001d4 <GPIO_DeInit+0x24>
    RCC_AHBPeriphResetCmd(RCC_AHBPeriph_GPIOD, ENABLE);
    RCC_AHBPeriphResetCmd(RCC_AHBPeriph_GPIOD, DISABLE);
  }
  else
  {
    if(GPIOx == GPIOF)
 80001cc:	4b20      	ldr	r3, [pc, #128]	@ (8000250 <GPIO_DeInit+0xa0>)
 80001ce:	4298      	cmp	r0, r3
 80001d0:	d02c      	beq.n	800022c <GPIO_DeInit+0x7c>
    {
      RCC_AHBPeriphResetCmd(RCC_AHBPeriph_GPIOF, ENABLE);
      RCC_AHBPeriphResetCmd(RCC_AHBPeriph_GPIOF, DISABLE);
    }
  }
}
 80001d2:	bd10      	pop	{r4, pc}
    RCC_AHBPeriphResetCmd(RCC_AHBPeriph_GPIOD, ENABLE);
 80001d4:	2080      	movs	r0, #128	@ 0x80
 80001d6:	2101      	movs	r1, #1
 80001d8:	0340      	lsls	r0, r0, #13
 80001da:	f000 fd51 	bl	8000c80 <RCC_AHBPeriphResetCmd>
    RCC_AHBPeriphResetCmd(RCC_AHBPeriph_GPIOD, DISABLE);
 80001de:	2080      	movs	r0, #128	@ 0x80
 80001e0:	2100      	movs	r1, #0
 80001e2:	0340      	lsls	r0, r0, #13
 80001e4:	f000 fd4c 	bl	8000c80 <RCC_AHBPeriphResetCmd>
 80001e8:	e7f3      	b.n	80001d2 <GPIO_DeInit+0x22>
    RCC_AHBPeriphResetCmd(RCC_AHBPeriph_GPIOA, ENABLE);
 80001ea:	2080      	movs	r0, #128	@ 0x80
 80001ec:	2101      	movs	r1, #1
 80001ee:	0280      	lsls	r0, r0, #10
 80001f0:	f000 fd46 	bl	8000c80 <RCC_AHBPeriphResetCmd>
    RCC_AHBPeriphResetCmd(RCC_AHBPeriph_GPIOA, DISABLE);
 80001f4:	2080      	movs	r0, #128	@ 0x80
 80001f6:	2100      	movs	r1, #0
 80001f8:	0280      	lsls	r0, r0, #10
 80001fa:	f000 fd41 	bl	8000c80 <RCC_AHBPeriphResetCmd>
 80001fe:	e7e8      	b.n	80001d2 <GPIO_DeInit+0x22>
    RCC_AHBPeriphResetCmd(RCC_AHBPeriph_GPIOB, ENABLE);
 8000200:	2080      	movs	r0, #128	@ 0x80
 8000202:	2101      	movs	r1, #1
 8000204:	02c0      	lsls	r0, r0, #11
 8000206:	f000 fd3b 	bl	8000c80 <RCC_AHBPeriphResetCmd>
    RCC_AHBPeriphResetCmd(RCC_AHBPeriph_GPIOB, DISABLE);
 800020a:	2080      	movs	r0, #128	@ 0x80
 800020c:	2100      	movs	r1, #0
 800020e:	02c0      	lsls	r0, r0, #11
 8000210:	f000 fd36 	bl	8000c80 <RCC_AHBPeriphResetCmd>
 8000214:	e7dd      	b.n	80001d2 <GPIO_DeInit+0x22>
    RCC_AHBPeriphResetCmd(RCC_AHBPeriph_GPIOC, ENABLE);
 8000216:	2080      	movs	r0, #128	@ 0x80
 8000218:	2101      	movs	r1, #1
 800021a:	0300      	lsls	r0, r0, #12
 800021c:	f000 fd30 	bl	8000c80 <RCC_AHBPeriphResetCmd>
    RCC_AHBPeriphResetCmd(RCC_AHBPeriph_GPIOC, DISABLE);
 8000220:	2080      	movs	r0, #128	@ 0x80
 8000222:	2100      	movs	r1, #0
 8000224:	0300      	lsls	r0, r0, #12
 8000226:	f000 fd2b 	bl	8000c80 <RCC_AHBPeriphResetCmd>
 800022a:	e7d2      	b.n	80001d2 <GPIO_DeInit+0x22>
      RCC_AHBPeriphResetCmd(RCC_AHBPeriph_GPIOF, ENABLE);
 800022c:	2080      	movs	r0, #128	@ 0x80
 800022e:	2101      	movs	r1, #1
 8000230:	03c0      	lsls	r0, r0, #15
 8000232:	f000 fd25 	bl	8000c80 <RCC_AHBPeriphResetCmd>
      RCC_AHBPeriphResetCmd(RCC_AHBPeriph_GPIOF, DISABLE);
 8000236:	2080      	movs	r0, #128	@ 0x80
 8000238:	2100      	movs	r1, #0
 800023a:	03c0      	lsls	r0, r0, #15
 800023c:	f000 fd20 	bl	8000c80 <RCC_AHBPeriphResetCmd>
}
 8000240:	e7c7      	b.n	80001d2 <GPIO_DeInit+0x22>
 8000242:	46c0      	nop			@ (mov r8, r8)
 8000244:	48000400 	.word	0x48000400
 8000248:	48000800 	.word	0x48000800
 800024c:	48000c00 	.word	0x48000c00
 8000250:	48001400 	.word	0x48001400

08000254 <GPIO_Init>:
  * @note   The configured pins can be: GPIO_Pin_0 to GPIO_Pin_15 for GPIOA, GPIOB and GPIOC,
  *         GPIO_Pin_0 to GPIO_Pin_2 for GPIOD, GPIO_Pin_0 to GPIO_Pin_3 for GPIOF.
  * @retval None
  */
void GPIO_Init(GPIO_TypeDef* GPIOx, GPIO_InitTypeDef* GPIO_InitStruct)
{
 8000254:	b5f0      	push	{r4, r5, r6, r7, lr}
 8000256:	46de      	mov	lr, fp
 8000258:	4645      	mov	r5, r8
 800025a:	4657      	mov	r7, sl
 800025c:	464e      	mov	r6, r9

  /*-------------------------- Configure the port pins -----------------------*/
  /*-- GPIO Mode Configuration --*/
  for (pinpos = 0x00; pinpos < 0x10; pinpos++)
  {
    pos = ((uint32_t)0x01) << pinpos;
 800025e:	2401      	movs	r4, #1
{
 8000260:	b5e0      	push	{r5, r6, r7, lr}

    /* Get the port pins position */
    currentpin = (GPIO_InitStruct->GPIO_Pin) & pos;
 8000262:	680b      	ldr	r3, [r1, #0]
    pos = ((uint32_t)0x01) << pinpos;
 8000264:	46a3      	mov	fp, r4
      {
        /* Check Speed mode parameters */
        assert_param(IS_GPIO_SPEED(GPIO_InitStruct->GPIO_Speed));

        /* Speed mode configuration */
        GPIOx->OSPEEDR &= ~(GPIO_OSPEEDER_OSPEEDR0 << (pinpos * 2));
 8000266:	3402      	adds	r4, #2
    currentpin = (GPIO_InitStruct->GPIO_Pin) & pos;
 8000268:	469c      	mov	ip, r3
 800026a:	2200      	movs	r2, #0
  for (pinpos = 0x00; pinpos < 0x10; pinpos++)
 800026c:	2300      	movs	r3, #0
        GPIOx->OSPEEDR &= ~(GPIO_OSPEEDER_OSPEEDR0 << (pinpos * 2));
 800026e:	46a0      	mov	r8, r4
{
 8000270:	b083      	sub	sp, #12
 8000272:	e003      	b.n	800027c <GPIO_Init+0x28>
  for (pinpos = 0x00; pinpos < 0x10; pinpos++)
 8000274:	3301      	adds	r3, #1
 8000276:	3202      	adds	r2, #2
 8000278:	2b10      	cmp	r3, #16
 800027a:	d038      	beq.n	80002ee <GPIO_Init+0x9a>
    pos = ((uint32_t)0x01) << pinpos;
 800027c:	465c      	mov	r4, fp
    currentpin = (GPIO_InitStruct->GPIO_Pin) & pos;
 800027e:	4665      	mov	r5, ip
    pos = ((uint32_t)0x01) << pinpos;
 8000280:	409c      	lsls	r4, r3
    currentpin = (GPIO_InitStruct->GPIO_Pin) & pos;
 8000282:	4025      	ands	r5, r4
    if (currentpin == pos)
 8000284:	42ac      	cmp	r4, r5
 8000286:	d1f5      	bne.n	8000274 <GPIO_Init+0x20>
        GPIOx->OSPEEDR &= ~(GPIO_OSPEEDER_OSPEEDR0 << (pinpos * 2));
 8000288:	4646      	mov	r6, r8
 800028a:	4096      	lsls	r6, r2
 800028c:	43f7      	mvns	r7, r6
      if ((GPIO_InitStruct->GPIO_Mode == GPIO_Mode_OUT) || (GPIO_InitStruct->GPIO_Mode == GPIO_Mode_AF))
 800028e:	790d      	ldrb	r5, [r1, #4]
        GPIOx->OSPEEDR &= ~(GPIO_OSPEEDER_OSPEEDR0 << (pinpos * 2));
 8000290:	9701      	str	r7, [sp, #4]
      if ((GPIO_InitStruct->GPIO_Mode == GPIO_Mode_OUT) || (GPIO_InitStruct->GPIO_Mode == GPIO_Mode_AF))
 8000292:	1e6e      	subs	r6, r5, #1
 8000294:	2e01      	cmp	r6, #1
 8000296:	d814      	bhi.n	80002c2 <GPIO_Init+0x6e>
        GPIOx->OSPEEDR &= ~(GPIO_OSPEEDER_OSPEEDR0 << (pinpos * 2));
 8000298:	6886      	ldr	r6, [r0, #8]
 800029a:	403e      	ands	r6, r7
 800029c:	6086      	str	r6, [r0, #8]
        GPIOx->OSPEEDR |= ((uint32_t)(GPIO_InitStruct->GPIO_Speed) << (pinpos * 2));
 800029e:	6886      	ldr	r6, [r0, #8]
 80002a0:	46b2      	mov	sl, r6
 80002a2:	794e      	ldrb	r6, [r1, #5]
 80002a4:	4096      	lsls	r6, r2
 80002a6:	46b1      	mov	r9, r6
 80002a8:	4656      	mov	r6, sl
 80002aa:	464f      	mov	r7, r9
 80002ac:	433e      	orrs	r6, r7
 80002ae:	6086      	str	r6, [r0, #8]

        /* Check Output mode parameters */
        assert_param(IS_GPIO_OTYPE(GPIO_InitStruct->GPIO_OType));

        /* Output mode configuration */
        GPIOx->OTYPER &= ~((GPIO_OTYPER_OT_0) << ((uint16_t)pinpos));
 80002b0:	8886      	ldrh	r6, [r0, #4]
 80002b2:	43a6      	bics	r6, r4
 80002b4:	8086      	strh	r6, [r0, #4]
        GPIOx->OTYPER |= (uint16_t)(((uint16_t)GPIO_InitStruct->GPIO_OType) << ((uint16_t)pinpos));
 80002b6:	798e      	ldrb	r6, [r1, #6]
 80002b8:	8884      	ldrh	r4, [r0, #4]
 80002ba:	409e      	lsls	r6, r3
 80002bc:	4334      	orrs	r4, r6
 80002be:	b2a4      	uxth	r4, r4
 80002c0:	8084      	strh	r4, [r0, #4]
      }

      GPIOx->MODER  &= ~(GPIO_MODER_MODER0 << (pinpos * 2));

      GPIOx->MODER |= (((uint32_t)GPIO_InitStruct->GPIO_Mode) << (pinpos * 2));
 80002c2:	4095      	lsls	r5, r2
      GPIOx->MODER  &= ~(GPIO_MODER_MODER0 << (pinpos * 2));
 80002c4:	6804      	ldr	r4, [r0, #0]
 80002c6:	9e01      	ldr	r6, [sp, #4]
  for (pinpos = 0x00; pinpos < 0x10; pinpos++)
 80002c8:	3301      	adds	r3, #1
      GPIOx->MODER  &= ~(GPIO_MODER_MODER0 << (pinpos * 2));
 80002ca:	4026      	ands	r6, r4
 80002cc:	6006      	str	r6, [r0, #0]
      GPIOx->MODER |= (((uint32_t)GPIO_InitStruct->GPIO_Mode) << (pinpos * 2));
 80002ce:	6804      	ldr	r4, [r0, #0]
 80002d0:	4325      	orrs	r5, r4
 80002d2:	6005      	str	r5, [r0, #0]

      /* Pull-up Pull down resistor configuration */
      GPIOx->PUPDR &= ~(GPIO_PUPDR_PUPDR0 << ((uint16_t)pinpos * 2));
 80002d4:	4645      	mov	r5, r8
 80002d6:	4095      	lsls	r5, r2
 80002d8:	68c4      	ldr	r4, [r0, #12]
 80002da:	43ac      	bics	r4, r5
 80002dc:	60c4      	str	r4, [r0, #12]
      GPIOx->PUPDR |= (((uint32_t)GPIO_InitStruct->GPIO_PuPd) << (pinpos * 2));
 80002de:	79cc      	ldrb	r4, [r1, #7]
 80002e0:	68c5      	ldr	r5, [r0, #12]
 80002e2:	4094      	lsls	r4, r2
 80002e4:	432c      	orrs	r4, r5
 80002e6:	60c4      	str	r4, [r0, #12]
  for (pinpos = 0x00; pinpos < 0x10; pinpos++)
 80002e8:	3202      	adds	r2, #2
 80002ea:	2b10      	cmp	r3, #16
 80002ec:	d1c6      	bne.n	800027c <GPIO_Init+0x28>
    }
  }
}
 80002ee:	b003      	add	sp, #12
 80002f0:	bcf0      	pop	{r4, r5, r6, r7}
 80002f2:	46bb      	mov	fp, r7
 80002f4:	46b2      	mov	sl, r6
 80002f6:	46a9      	mov	r9, r5
 80002f8:	46a0      	mov	r8, r4
 80002fa:	bdf0      	pop	{r4, r5, r6, r7, pc}

080002fc <GPIO_StructInit>:
  * @retval None
  */
void GPIO_StructInit(GPIO_InitTypeDef* GPIO_InitStruct)
{
  /* Reset GPIO init structure parameters values */
  GPIO_InitStruct->GPIO_Pin  = GPIO_Pin_All;
 80002fc:	4b02      	ldr	r3, [pc, #8]	@ (8000308 <GPIO_StructInit+0xc>)
 80002fe:	6003      	str	r3, [r0, #0]
  GPIO_InitStruct->GPIO_Mode = GPIO_Mode_IN;
 8000300:	2380      	movs	r3, #128	@ 0x80
 8000302:	009b      	lsls	r3, r3, #2
 8000304:	6043      	str	r3, [r0, #4]
  GPIO_InitStruct->GPIO_Speed = GPIO_Speed_Level_2;
  GPIO_InitStruct->GPIO_OType = GPIO_OType_PP;
  GPIO_InitStruct->GPIO_PuPd = GPIO_PuPd_NOPULL;
}
 8000306:	4770      	bx	lr
 8000308:	0000ffff 	.word	0x0000ffff

0800030c <GPIO_PinLockConfig>:
  *          This parameter can be any combination of GPIO_Pin_x where x can be (0..15).
  * @retval None
  */
void GPIO_PinLockConfig(GPIO_TypeDef* GPIOx, uint16_t GPIO_Pin)
{
  __IO uint32_t tmp = 0x00010000;
 800030c:	2380      	movs	r3, #128	@ 0x80
{
 800030e:	b082      	sub	sp, #8
  __IO uint32_t tmp = 0x00010000;
 8000310:	025b      	lsls	r3, r3, #9
 8000312:	9301      	str	r3, [sp, #4]

  /* Check the parameters */
  assert_param(IS_GPIO_LIST_PERIPH(GPIOx));
  assert_param(IS_GPIO_PIN(GPIO_Pin));

  tmp |= GPIO_Pin;
 8000314:	9b01      	ldr	r3, [sp, #4]
 8000316:	430b      	orrs	r3, r1
 8000318:	9301      	str	r3, [sp, #4]
  /* Set LCKK bit */
  GPIOx->LCKR = tmp;
 800031a:	9b01      	ldr	r3, [sp, #4]
 800031c:	61c3      	str	r3, [r0, #28]
  /* Reset LCKK bit */
  GPIOx->LCKR =  GPIO_Pin;
 800031e:	61c1      	str	r1, [r0, #28]
  /* Set LCKK bit */
  GPIOx->LCKR = tmp;
 8000320:	9b01      	ldr	r3, [sp, #4]
 8000322:	61c3      	str	r3, [r0, #28]
  /* Read LCKK bit */
  tmp = GPIOx->LCKR;
 8000324:	69c3      	ldr	r3, [r0, #28]
 8000326:	9301      	str	r3, [sp, #4]
  /* Read LCKK bit */
  tmp = GPIOx->LCKR;
 8000328:	69c3      	ldr	r3, [r0, #28]
 800032a:	9301      	str	r3, [sp, #4]
}
 800032c:	b002      	add	sp, #8
 800032e:	4770      	bx	lr

08000330 <GPIO_ReadInputDataBit>:

  /* Check the parameters */
  assert_param(IS_GPIO_ALL_PERIPH(GPIOx));
  assert_param(IS_GET_GPIO_PIN(GPIO_Pin));

  if ((GPIOx->IDR & GPIO_Pin) != (uint32_t)Bit_RESET)
 8000330:	8a03      	ldrh	r3, [r0, #16]
 8000332:	4019      	ands	r1, r3
 8000334:	0008      	movs	r0, r1
 8000336:	1e43      	subs	r3, r0, #1
 8000338:	4198      	sbcs	r0, r3
  }
  else
  {
    bitstatus = (uint8_t)Bit_RESET;
  }
  return bitstatus;
 800033a:	b2c0      	uxtb	r0, r0
}
 800033c:	4770      	bx	lr
 800033e:	46c0      	nop			@ (mov r8, r8)

08000340 <GPIO_ReadInputData>:
uint16_t GPIO_ReadInputData(GPIO_TypeDef* GPIOx)
{
  /* Check the parameters */
  assert_param(IS_GPIO_ALL_PERIPH(GPIOx));

  return ((uint16_t)GPIOx->IDR);
 8000340:	8a00      	ldrh	r0, [r0, #16]
 8000342:	b280      	uxth	r0, r0
}
 8000344:	4770      	bx	lr
 8000346:	46c0      	nop			@ (mov r8, r8)

08000348 <GPIO_ReadOutputDataBit>:

  /* Check the parameters */
  assert_param(IS_GPIO_ALL_PERIPH(GPIOx));
  assert_param(IS_GET_GPIO_PIN(GPIO_Pin));

  if ((GPIOx->ODR & GPIO_Pin) != (uint32_t)Bit_RESET)
 8000348:	8a83      	ldrh	r3, [r0, #20]
 800034a:	4019      	ands	r1, r3
 800034c:	0008      	movs	r0, r1
 800034e:	1e43      	subs	r3, r0, #1
 8000350:	4198      	sbcs	r0, r3
  }
  else
  {
    bitstatus = (uint8_t)Bit_RESET;
  }
  return bitstatus;
 8000352:	b2c0      	uxtb	r0, r0
}
 8000354:	4770      	bx	lr
 8000356:	46c0      	nop			@ (mov r8, r8)

08000358 <GPIO_ReadOutputData>:
uint16_t GPIO_ReadOutputData(GPIO_TypeDef* GPIOx)
{
  /* Check the parameters */
  assert_param(IS_GPIO_ALL_PERIPH(GPIOx));

  return ((uint16_t)GPIOx->ODR);
 8000358:	8a80      	ldrh	r0, [r0, #20]
 800035a:	b280      	uxth	r0, r0
}
 800035c:	4770      	bx	lr
 800035e:	46c0      	nop			@ (mov r8, r8)

08000360 <GPIO_SetBits>:
{
  /* Check the parameters */
  assert_param(IS_GPIO_ALL_PERIPH(GPIOx));
  assert_param(IS_GPIO_PIN(GPIO_Pin));

  GPIOx->BSRR = GPIO_Pin;
 8000360:	6181      	str	r1, [r0, #24]
}
 8000362:	4770      	bx	lr

08000364 <GPIO_ResetBits>:
{
  /* Check the parameters */
  assert_param(IS_GPIO_ALL_PERIPH(GPIOx));
  assert_param(IS_GPIO_PIN(GPIO_Pin));

  GPIOx->BRR = GPIO_Pin;
 8000364:	8501      	strh	r1, [r0, #40]	@ 0x28
}
 8000366:	4770      	bx	lr

08000368 <GPIO_WriteBit>:
  /* Check the parameters */
  assert_param(IS_GPIO_ALL_PERIPH(GPIOx));
  assert_param(IS_GET_GPIO_PIN(GPIO_Pin));
  assert_param(IS_GPIO_BIT_ACTION(BitVal));

  if (BitVal != Bit_RESET)
 8000368:	2a00      	cmp	r2, #0
 800036a:	d001      	beq.n	8000370 <GPIO_WriteBit+0x8>
  {
    GPIOx->BSRR = GPIO_Pin;
 800036c:	6181      	str	r1, [r0, #24]
  }
  else
  {
    GPIOx->BRR = GPIO_Pin ;
  }
}
 800036e:	4770      	bx	lr
    GPIOx->BRR = GPIO_Pin ;
 8000370:	8501      	strh	r1, [r0, #40]	@ 0x28
}
 8000372:	e7fc      	b.n	800036e <GPIO_WriteBit+0x6>

08000374 <GPIO_Write>:
void GPIO_Write(GPIO_TypeDef* GPIOx, uint16_t PortVal)
{
  /* Check the parameters */
  assert_param(IS_GPIO_ALL_PERIPH(GPIOx));

  GPIOx->ODR = PortVal;
 8000374:	8281      	strh	r1, [r0, #20]
}
 8000376:	4770      	bx	lr

08000378 <GPIO_PinAFConfig>:
  /* Check the parameters */
  assert_param(IS_GPIO_LIST_PERIPH(GPIOx));
  assert_param(IS_GPIO_PIN_SOURCE(GPIO_PinSource));
  assert_param(IS_GPIO_AF(GPIO_AF));

  temp = ((uint32_t)(GPIO_AF) << ((uint32_t)((uint32_t)GPIO_PinSource & (uint32_t)0x07) * 4));
 8000378:	2307      	movs	r3, #7
{
 800037a:	b510      	push	{r4, lr}
  GPIOx->AFR[GPIO_PinSource >> 0x03] &= ~((uint32_t)0xF << ((uint32_t)((uint32_t)GPIO_PinSource & (uint32_t)0x07) * 4));
 800037c:	240f      	movs	r4, #15
  temp = ((uint32_t)(GPIO_AF) << ((uint32_t)((uint32_t)GPIO_PinSource & (uint32_t)0x07) * 4));
 800037e:	400b      	ands	r3, r1
 8000380:	009b      	lsls	r3, r3, #2
  GPIOx->AFR[GPIO_PinSource >> 0x03] &= ~((uint32_t)0xF << ((uint32_t)((uint32_t)GPIO_PinSource & (uint32_t)0x07) * 4));
 8000382:	409c      	lsls	r4, r3
  temp = ((uint32_t)(GPIO_AF) << ((uint32_t)((uint32_t)GPIO_PinSource & (uint32_t)0x07) * 4));
 8000384:	409a      	lsls	r2, r3
 8000386:	08c9      	lsrs	r1, r1, #3
 8000388:	0089      	lsls	r1, r1, #2
 800038a:	1840      	adds	r0, r0, r1
  GPIOx->AFR[GPIO_PinSource >> 0x03] &= ~((uint32_t)0xF << ((uint32_t)((uint32_t)GPIO_PinSource & (uint32_t)0x07) * 4));
 800038c:	6a01      	ldr	r1, [r0, #32]
 800038e:	43a1      	bics	r1, r4
 8000390:	6201      	str	r1, [r0, #32]
  temp_2 = GPIOx->AFR[GPIO_PinSource >> 0x03] | temp;
 8000392:	6a01      	ldr	r1, [r0, #32]
 8000394:	430a      	orrs	r2, r1
  GPIOx->AFR[GPIO_PinSource >> 0x03] = temp_2;
 8000396:	6202      	str	r2, [r0, #32]
}
 8000398:	bd10      	pop	{r4, pc}
 800039a:	46c0      	nop			@ (mov r8, r8)

0800039c <I2C_DeInit>:
void I2C_DeInit(I2C_TypeDef* I2Cx)
{
  /* Check the parameters */
  assert_param(IS_I2C_ALL_PERIPH(I2Cx));

  if (I2Cx == I2C1)
 800039c:	4b0c      	ldr	r3, [pc, #48]	@ (80003d0 <I2C_DeInit+0x34>)
  {
    /* Enable I2C1 reset state */
    RCC_APB1PeriphResetCmd(RCC_APB1Periph_I2C1, ENABLE);
 800039e:	2101      	movs	r1, #1
{
 80003a0:	b510      	push	{r4, lr}
  if (I2Cx == I2C1)
 80003a2:	4298      	cmp	r0, r3
 80003a4:	d009      	beq.n	80003ba <I2C_DeInit+0x1e>
    RCC_APB1PeriphResetCmd(RCC_APB1Periph_I2C1, DISABLE);
  }
  else
  {
    /* Enable I2C2 reset state */
    RCC_APB1PeriphResetCmd(RCC_APB1Periph_I2C2, ENABLE);
 80003a6:	2080      	movs	r0, #128	@ 0x80
 80003a8:	03c0      	lsls	r0, r0, #15
 80003aa:	f000 fc81 	bl	8000cb0 <RCC_APB1PeriphResetCmd>
    /* Release I2C2 from reset state */
    RCC_APB1PeriphResetCmd(RCC_APB1Periph_I2C2, DISABLE);
 80003ae:	2080      	movs	r0, #128	@ 0x80
 80003b0:	2100      	movs	r1, #0
 80003b2:	03c0      	lsls	r0, r0, #15
 80003b4:	f000 fc7c 	bl	8000cb0 <RCC_APB1PeriphResetCmd>
  }
}
 80003b8:	bd10      	pop	{r4, pc}
    RCC_APB1PeriphResetCmd(RCC_APB1Periph_I2C1, ENABLE);
 80003ba:	2080      	movs	r0, #128	@ 0x80
 80003bc:	0380      	lsls	r0, r0, #14
 80003be:	f000 fc77 	bl	8000cb0 <RCC_APB1PeriphResetCmd>
    RCC_APB1PeriphResetCmd(RCC_APB1Periph_I2C1, DISABLE);
 80003c2:	2080      	movs	r0, #128	@ 0x80
 80003c4:	2100      	movs	r1, #0
 80003c6:	0380      	lsls	r0, r0, #14
 80003c8:	f000 fc72 	bl	8000cb0 <RCC_APB1PeriphResetCmd>
 80003cc:	e7f4      	b.n	80003b8 <I2C_DeInit+0x1c>
 80003ce:	46c0      	nop			@ (mov r8, r8)
 80003d0:	40005400 	.word	0x40005400

080003d4 <I2C_Init>:
  * @param  I2C_InitStruct: pointer to a I2C_InitTypeDef structure that
  *         contains the configuration information for the specified I2C peripheral.
  * @retval None
  */
void I2C_Init(I2C_TypeDef* I2Cx, I2C_InitTypeDef* I2C_InitStruct)
{
 80003d4:	b530      	push	{r4, r5, lr}
  assert_param(IS_I2C_OWN_ADDRESS1(I2C_InitStruct->I2C_OwnAddress1));
  assert_param(IS_I2C_ACK(I2C_InitStruct->I2C_Ack));
  assert_param(IS_I2C_ACKNOWLEDGE_ADDRESS(I2C_InitStruct->I2C_AcknowledgedAddress));

  /* Disable I2Cx Peripheral */
  I2Cx->CR1 &= (uint32_t)~((uint32_t)I2C_CR1_PE);
 80003d6:	2401      	movs	r4, #1
 80003d8:	6803      	ldr	r3, [r0, #0]
  /* Clear I2Cx CR1 register */
  tmpreg &= CR1_CLEAR_MASK;
  /* Configure I2Cx: analog and digital filter */
  /* Set ANFOFF bit according to I2C_AnalogFilter value */
  /* Set DFN bits according to I2C_DigitalFilter value */
  tmpreg |= (uint32_t)I2C_InitStruct->I2C_AnalogFilter |(I2C_InitStruct->I2C_DigitalFilter << 8);
 80003da:	684d      	ldr	r5, [r1, #4]
  I2Cx->CR1 &= (uint32_t)~((uint32_t)I2C_CR1_PE);
 80003dc:	43a3      	bics	r3, r4
 80003de:	6003      	str	r3, [r0, #0]
  tmpreg = I2Cx->CR1;
 80003e0:	6802      	ldr	r2, [r0, #0]
  tmpreg &= CR1_CLEAR_MASK;
 80003e2:	4b12      	ldr	r3, [pc, #72]	@ (800042c <I2C_Init+0x58>)
 80003e4:	401a      	ands	r2, r3
  tmpreg |= (uint32_t)I2C_InitStruct->I2C_AnalogFilter |(I2C_InitStruct->I2C_DigitalFilter << 8);
 80003e6:	688b      	ldr	r3, [r1, #8]
 80003e8:	021b      	lsls	r3, r3, #8
 80003ea:	432b      	orrs	r3, r5
 80003ec:	4313      	orrs	r3, r2

  /* Write to I2Cx CR1 */
  I2Cx->CR1 = tmpreg;
 80003ee:	6003      	str	r3, [r0, #0]

  /*---------------------------- I2Cx TIMING Configuration -------------------*/
  /* Configure I2Cx: Timing */
  /* Set TIMINGR bits according to I2C_Timing */
  /* Write to I2Cx TIMING */
  I2Cx->TIMINGR = I2C_InitStruct->I2C_Timing & TIMING_CLEAR_MASK;
 80003f0:	4a0f      	ldr	r2, [pc, #60]	@ (8000430 <I2C_Init+0x5c>)
 80003f2:	680b      	ldr	r3, [r1, #0]
 80003f4:	4013      	ands	r3, r2
 80003f6:	6103      	str	r3, [r0, #16]

  /* Enable I2Cx Peripheral */
  I2Cx->CR1 |= I2C_CR1_PE;
 80003f8:	6803      	ldr	r3, [r0, #0]
  /* Clear OAR2 register */
  I2Cx->OAR2 = (uint32_t)tmpreg;
  /* Configure I2Cx: Own Address1 and acknowledged address */
  /* Set OA1MODE bit according to I2C_AcknowledgedAddress value */
  /* Set OA1 bits according to I2C_OwnAddress1 value */
  tmpreg = (uint32_t)((uint32_t)I2C_InitStruct->I2C_AcknowledgedAddress | \
 80003fa:	690a      	ldr	r2, [r1, #16]
  I2Cx->CR1 |= I2C_CR1_PE;
 80003fc:	4323      	orrs	r3, r4
 80003fe:	6003      	str	r3, [r0, #0]
  I2Cx->OAR1 = (uint32_t)tmpreg;
 8000400:	2300      	movs	r3, #0
 8000402:	6083      	str	r3, [r0, #8]
  I2Cx->OAR2 = (uint32_t)tmpreg;
 8000404:	60c3      	str	r3, [r0, #12]
  tmpreg = (uint32_t)((uint32_t)I2C_InitStruct->I2C_AcknowledgedAddress | \
 8000406:	698b      	ldr	r3, [r1, #24]
 8000408:	4313      	orrs	r3, r2
                      (uint32_t)I2C_InitStruct->I2C_OwnAddress1);
  /* Write to I2Cx OAR1 */
  I2Cx->OAR1 = tmpreg;
 800040a:	6083      	str	r3, [r0, #8]
  /* Enable Own Address1 acknowledgement */
  I2Cx->OAR1 |= I2C_OAR1_OA1EN;
 800040c:	2380      	movs	r3, #128	@ 0x80
 800040e:	6882      	ldr	r2, [r0, #8]
 8000410:	021b      	lsls	r3, r3, #8
 8000412:	4313      	orrs	r3, r2
 8000414:	6083      	str	r3, [r0, #8]
  /*---------------------------- I2Cx MODE Configuration ---------------------*/
  /* Configure I2Cx: mode */
  /* Set SMBDEN and SMBHEN bits according to I2C_Mode value */
  tmpreg = I2C_InitStruct->I2C_Mode;
  /* Write to I2Cx CR1 */
  I2Cx->CR1 |= tmpreg;
 8000416:	6803      	ldr	r3, [r0, #0]
 8000418:	68ca      	ldr	r2, [r1, #12]
 800041a:	4313      	orrs	r3, r2
 800041c:	6003      	str	r3, [r0, #0]

  /*---------------------------- I2Cx ACK Configuration ----------------------*/
  /* Get the I2Cx CR2 value */
  tmpreg = I2Cx->CR2;
 800041e:	6843      	ldr	r3, [r0, #4]
  /* Clear I2Cx CR2 register */
  tmpreg &= CR2_CLEAR_MASK;
 8000420:	4a04      	ldr	r2, [pc, #16]	@ (8000434 <I2C_Init+0x60>)
 8000422:	4013      	ands	r3, r2
  /* Configure I2Cx: acknowledgement */
  /* Set NACK bit according to I2C_Ack value */
  tmpreg |= I2C_InitStruct->I2C_Ack;
 8000424:	694a      	ldr	r2, [r1, #20]
 8000426:	4313      	orrs	r3, r2
  /* Write to I2Cx CR2 */
  I2Cx->CR2 = tmpreg;
 8000428:	6043      	str	r3, [r0, #4]
}
 800042a:	bd30      	pop	{r4, r5, pc}
 800042c:	00cfe0ff 	.word	0x00cfe0ff
 8000430:	f0ffffff 	.word	0xf0ffffff
 8000434:	07ff7fff 	.word	0x07ff7fff

08000438 <I2C_StructInit>:
  /* Initialize the I2C_Mode member */
  I2C_InitStruct->I2C_Mode = I2C_Mode_I2C;
  /* Initialize the I2C_OwnAddress1 member */
  I2C_InitStruct->I2C_OwnAddress1 = 0;
  /* Initialize the I2C_Ack member */
  I2C_InitStruct->I2C_Ack = I2C_Ack_Disable;
 8000438:	2280      	movs	r2, #128	@ 0x80
  I2C_InitStruct->I2C_Timing = 0;
 800043a:	2300      	movs	r3, #0
  I2C_InitStruct->I2C_Ack = I2C_Ack_Disable;
 800043c:	0212      	lsls	r2, r2, #8
  I2C_InitStruct->I2C_Timing = 0;
 800043e:	6003      	str	r3, [r0, #0]
  I2C_InitStruct->I2C_AnalogFilter = I2C_AnalogFilter_Enable;
 8000440:	6043      	str	r3, [r0, #4]
  I2C_InitStruct->I2C_DigitalFilter = 0;
 8000442:	6083      	str	r3, [r0, #8]
  I2C_InitStruct->I2C_Mode = I2C_Mode_I2C;
 8000444:	60c3      	str	r3, [r0, #12]
  I2C_InitStruct->I2C_OwnAddress1 = 0;
 8000446:	6103      	str	r3, [r0, #16]
  I2C_InitStruct->I2C_Ack = I2C_Ack_Disable;
 8000448:	6142      	str	r2, [r0, #20]
  /* Initialize the I2C_AcknowledgedAddress member */
  I2C_InitStruct->I2C_AcknowledgedAddress = I2C_AcknowledgedAddress_7bit;
 800044a:	6183      	str	r3, [r0, #24]
}
 800044c:	4770      	bx	lr
 800044e:	46c0      	nop			@ (mov r8, r8)

08000450 <I2C_Cmd>:
  assert_param(IS_I2C_ALL_PERIPH(I2Cx));
  assert_param(IS_FUNCTIONAL_STATE(NewState));
  if (NewState != DISABLE)
  {
    /* Enable the selected I2C peripheral */
    I2Cx->CR1 |= I2C_CR1_PE;
 8000450:	2201      	movs	r2, #1
 8000452:	6803      	ldr	r3, [r0, #0]
  if (NewState != DISABLE)
 8000454:	2900      	cmp	r1, #0
 8000456:	d002      	beq.n	800045e <I2C_Cmd+0xe>
    I2Cx->CR1 |= I2C_CR1_PE;
 8000458:	4313      	orrs	r3, r2
 800045a:	6003      	str	r3, [r0, #0]
  else
  {
    /* Disable the selected I2C peripheral */
    I2Cx->CR1 &= (uint32_t)~((uint32_t)I2C_CR1_PE);
  }
}
 800045c:	4770      	bx	lr
    I2Cx->CR1 &= (uint32_t)~((uint32_t)I2C_CR1_PE);
 800045e:	4393      	bics	r3, r2
 8000460:	6003      	str	r3, [r0, #0]
}
 8000462:	e7fb      	b.n	800045c <I2C_Cmd+0xc>

08000464 <I2C_SoftwareResetCmd>:
void I2C_SoftwareResetCmd(I2C_TypeDef* I2Cx, FunctionalState NewState)
{
  /* Check the parameters */
  assert_param(IS_I2C_ALL_PERIPH(I2Cx));
  assert_param(IS_FUNCTIONAL_STATE(NewState));
  if (NewState != DISABLE)
 8000464:	2900      	cmp	r1, #0
 8000466:	d005      	beq.n	8000474 <I2C_SoftwareResetCmd+0x10>
  {
    /* Peripheral under reset */
    I2Cx->CR1 |= I2C_CR1_SWRST;
 8000468:	2380      	movs	r3, #128	@ 0x80
 800046a:	6802      	ldr	r2, [r0, #0]
 800046c:	019b      	lsls	r3, r3, #6
 800046e:	4313      	orrs	r3, r2
 8000470:	6003      	str	r3, [r0, #0]
  else
  {
    /* Peripheral not under reset */
    I2Cx->CR1 &= (uint32_t)~((uint32_t)I2C_CR1_SWRST);
  }
}
 8000472:	4770      	bx	lr
    I2Cx->CR1 &= (uint32_t)~((uint32_t)I2C_CR1_SWRST);
 8000474:	6803      	ldr	r3, [r0, #0]
 8000476:	4a02      	ldr	r2, [pc, #8]	@ (8000480 <I2C_SoftwareResetCmd+0x1c>)
 8000478:	4013      	ands	r3, r2
 800047a:	6003      	str	r3, [r0, #0]
}
 800047c:	e7f9      	b.n	8000472 <I2C_SoftwareResetCmd+0xe>
 800047e:	46c0      	nop			@ (mov r8, r8)
 8000480:	ffffdfff 	.word	0xffffdfff

08000484 <I2C_ITConfig>:
  assert_param(IS_I2C_CONFIG_IT(I2C_IT));
  
  if (NewState != DISABLE)
  {
    /* Enable the selected I2C interrupts */
    I2Cx->CR1 |= I2C_IT;
 8000484:	6803      	ldr	r3, [r0, #0]
  if (NewState != DISABLE)
 8000486:	2a00      	cmp	r2, #0
 8000488:	d002      	beq.n	8000490 <I2C_ITConfig+0xc>
    I2Cx->CR1 |= I2C_IT;
 800048a:	430b      	orrs	r3, r1
 800048c:	6003      	str	r3, [r0, #0]
  else
  {
    /* Disable the selected I2C interrupts */
    I2Cx->CR1 &= (uint32_t)~((uint32_t)I2C_IT);
  }
}
 800048e:	4770      	bx	lr
    I2Cx->CR1 &= (uint32_t)~((uint32_t)I2C_IT);
 8000490:	438b      	bics	r3, r1
 8000492:	6003      	str	r3, [r0, #0]
}
 8000494:	e7fb      	b.n	800048e <I2C_ITConfig+0xa>
 8000496:	46c0      	nop			@ (mov r8, r8)

08000498 <I2C_StretchClockCmd>:
{
  /* Check the parameters */
  assert_param(IS_I2C_ALL_PERIPH(I2Cx));
  assert_param(IS_FUNCTIONAL_STATE(NewState));
  
  if (NewState != DISABLE)
 8000498:	2900      	cmp	r1, #0
 800049a:	d004      	beq.n	80004a6 <I2C_StretchClockCmd+0xe>
  {
    /* Enable clock stretching */
    I2Cx->CR1 &= (uint32_t)~((uint32_t)I2C_CR1_NOSTRETCH);    
 800049c:	6803      	ldr	r3, [r0, #0]
 800049e:	4a05      	ldr	r2, [pc, #20]	@ (80004b4 <I2C_StretchClockCmd+0x1c>)
 80004a0:	4013      	ands	r3, r2
 80004a2:	6003      	str	r3, [r0, #0]
  else
  {
    /* Disable clock stretching  */
    I2Cx->CR1 |= I2C_CR1_NOSTRETCH;
  }
}
 80004a4:	4770      	bx	lr
    I2Cx->CR1 |= I2C_CR1_NOSTRETCH;
 80004a6:	2380      	movs	r3, #128	@ 0x80
 80004a8:	6802      	ldr	r2, [r0, #0]
 80004aa:	029b      	lsls	r3, r3, #10
 80004ac:	4313      	orrs	r3, r2
 80004ae:	6003      	str	r3, [r0, #0]
}
 80004b0:	e7f8      	b.n	80004a4 <I2C_StretchClockCmd+0xc>
 80004b2:	46c0      	nop			@ (mov r8, r8)
 80004b4:	fffdffff 	.word	0xfffdffff

080004b8 <I2C_StopModeCmd>:
{
  /* Check the parameters */
  assert_param(IS_I2C_1_PERIPH(I2Cx));
  assert_param(IS_FUNCTIONAL_STATE(NewState));
  
  if (NewState != DISABLE)
 80004b8:	2900      	cmp	r1, #0
 80004ba:	d005      	beq.n	80004c8 <I2C_StopModeCmd+0x10>
  {
    /* Enable wakeup from stop mode */
    I2Cx->CR1 |= I2C_CR1_WUPEN;   
 80004bc:	2380      	movs	r3, #128	@ 0x80
 80004be:	6802      	ldr	r2, [r0, #0]
 80004c0:	02db      	lsls	r3, r3, #11
 80004c2:	4313      	orrs	r3, r2
 80004c4:	6003      	str	r3, [r0, #0]
  else
  {
    /* Disable wakeup from stop mode */    
    I2Cx->CR1 &= (uint32_t)~((uint32_t)I2C_CR1_WUPEN); 
  }
}
 80004c6:	4770      	bx	lr
    I2Cx->CR1 &= (uint32_t)~((uint32_t)I2C_CR1_WUPEN); 
 80004c8:	6803      	ldr	r3, [r0, #0]
 80004ca:	4a02      	ldr	r2, [pc, #8]	@ (80004d4 <I2C_StopModeCmd+0x1c>)
 80004cc:	4013      	ands	r3, r2
 80004ce:	6003      	str	r3, [r0, #0]
}
 80004d0:	e7f9      	b.n	80004c6 <I2C_StopModeCmd+0xe>
 80004d2:	46c0      	nop			@ (mov r8, r8)
 80004d4:	fffbffff 	.word	0xfffbffff

080004d8 <I2C_DualAddressCmd>:
{
  /* Check the parameters */
  assert_param(IS_I2C_ALL_PERIPH(I2Cx));
  assert_param(IS_FUNCTIONAL_STATE(NewState));
  
  if (NewState != DISABLE)
 80004d8:	2900      	cmp	r1, #0
 80004da:	d005      	beq.n	80004e8 <I2C_DualAddressCmd+0x10>
  {
    /* Enable own address 2 */
    I2Cx->OAR2 |= I2C_OAR2_OA2EN;
 80004dc:	2380      	movs	r3, #128	@ 0x80
 80004de:	68c2      	ldr	r2, [r0, #12]
 80004e0:	021b      	lsls	r3, r3, #8
 80004e2:	4313      	orrs	r3, r2
 80004e4:	60c3      	str	r3, [r0, #12]
  else
  {
    /* Disable own address 2 */
    I2Cx->OAR2 &= (uint32_t)~((uint32_t)I2C_OAR2_OA2EN);
  }
}    
 80004e6:	4770      	bx	lr
    I2Cx->OAR2 &= (uint32_t)~((uint32_t)I2C_OAR2_OA2EN);
 80004e8:	68c3      	ldr	r3, [r0, #12]
 80004ea:	4a02      	ldr	r2, [pc, #8]	@ (80004f4 <I2C_DualAddressCmd+0x1c>)
 80004ec:	4013      	ands	r3, r2
 80004ee:	60c3      	str	r3, [r0, #12]
}    
 80004f0:	e7f9      	b.n	80004e6 <I2C_DualAddressCmd+0xe>
 80004f2:	46c0      	nop			@ (mov r8, r8)
 80004f4:	ffff7fff 	.word	0xffff7fff

080004f8 <I2C_OwnAddress2Config>:
  *            @arg I2C_OA2_Mask06: OA2[6:1] are masked and don't care.
  *            @arg I2C_OA2_Mask07: OA2[7:1] are masked and don't care.
  * @retval None
  */
void I2C_OwnAddress2Config(I2C_TypeDef* I2Cx, uint16_t Address, uint8_t Mask)
{
 80004f8:	b510      	push	{r4, lr}
  assert_param(IS_I2C_ALL_PERIPH(I2Cx));
  assert_param(IS_I2C_OWN_ADDRESS2(Address));
  assert_param(IS_I2C_OWN_ADDRESS2_MASK(Mask));
  
  /* Get the old register value */
  tmpreg = I2Cx->OAR2;
 80004fa:	68c3      	ldr	r3, [r0, #12]

  /* Reset I2Cx OA2 bit [7:1] and OA2MSK bit [1:0]  */
  tmpreg &= (uint32_t)~((uint32_t)(I2C_OAR2_OA2 | I2C_OAR2_OA2MSK));
 80004fc:	4c05      	ldr	r4, [pc, #20]	@ (8000514 <I2C_OwnAddress2Config+0x1c>)

  /* Set I2Cx SADD */
  tmpreg |= (uint32_t)(((uint32_t)Address & I2C_OAR2_OA2) | \
            (((uint32_t)Mask << 8) & I2C_OAR2_OA2MSK)) ;
 80004fe:	0212      	lsls	r2, r2, #8
  tmpreg &= (uint32_t)~((uint32_t)(I2C_OAR2_OA2 | I2C_OAR2_OA2MSK));
 8000500:	4023      	ands	r3, r4
            (((uint32_t)Mask << 8) & I2C_OAR2_OA2MSK)) ;
 8000502:	24e0      	movs	r4, #224	@ 0xe0
 8000504:	00e4      	lsls	r4, r4, #3
 8000506:	4022      	ands	r2, r4
  tmpreg |= (uint32_t)(((uint32_t)Address & I2C_OAR2_OA2) | \
 8000508:	24fe      	movs	r4, #254	@ 0xfe
 800050a:	400c      	ands	r4, r1
 800050c:	4322      	orrs	r2, r4
 800050e:	431a      	orrs	r2, r3

  /* Store the new register value */
  I2Cx->OAR2 = tmpreg;
 8000510:	60c2      	str	r2, [r0, #12]
}
 8000512:	bd10      	pop	{r4, pc}
 8000514:	fffff801 	.word	0xfffff801

08000518 <I2C_GeneralCallCmd>:
{
  /* Check the parameters */
  assert_param(IS_I2C_ALL_PERIPH(I2Cx));
  assert_param(IS_FUNCTIONAL_STATE(NewState));
  
  if (NewState != DISABLE)
 8000518:	2900      	cmp	r1, #0
 800051a:	d005      	beq.n	8000528 <I2C_GeneralCallCmd+0x10>
  {
    /* Enable general call mode */
    I2Cx->CR1 |= I2C_CR1_GCEN;
 800051c:	2380      	movs	r3, #128	@ 0x80
 800051e:	6802      	ldr	r2, [r0, #0]
 8000520:	031b      	lsls	r3, r3, #12
 8000522:	4313      	orrs	r3, r2
 8000524:	6003      	str	r3, [r0, #0]
  else
  {
    /* Disable general call mode */
    I2Cx->CR1 &= (uint32_t)~((uint32_t)I2C_CR1_GCEN);
  }
} 
 8000526:	4770      	bx	lr
    I2Cx->CR1 &= (uint32_t)~((uint32_t)I2C_CR1_GCEN);
 8000528:	6803      	ldr	r3, [r0, #0]
 800052a:	4a02      	ldr	r2, [pc, #8]	@ (8000534 <I2C_GeneralCallCmd+0x1c>)
 800052c:	4013      	ands	r3, r2
 800052e:	6003      	str	r3, [r0, #0]
} 
 8000530:	e7f9      	b.n	8000526 <I2C_GeneralCallCmd+0xe>
 8000532:	46c0      	nop			@ (mov r8, r8)
 8000534:	fff7ffff 	.word	0xfff7ffff

08000538 <I2C_SlaveByteControlCmd>:
{
  /* Check the parameters */
  assert_param(IS_I2C_ALL_PERIPH(I2Cx));
  assert_param(IS_FUNCTIONAL_STATE(NewState));
  
  if (NewState != DISABLE)
 8000538:	2900      	cmp	r1, #0
 800053a:	d005      	beq.n	8000548 <I2C_SlaveByteControlCmd+0x10>
  {
    /* Enable slave byte control */
    I2Cx->CR1 |= I2C_CR1_SBC;
 800053c:	2380      	movs	r3, #128	@ 0x80
 800053e:	6802      	ldr	r2, [r0, #0]
 8000540:	025b      	lsls	r3, r3, #9
 8000542:	4313      	orrs	r3, r2
 8000544:	6003      	str	r3, [r0, #0]
  else
  {
    /* Disable slave byte control */
    I2Cx->CR1 &= (uint32_t)~((uint32_t)I2C_CR1_SBC);
  }
}
 8000546:	4770      	bx	lr
    I2Cx->CR1 &= (uint32_t)~((uint32_t)I2C_CR1_SBC);
 8000548:	6803      	ldr	r3, [r0, #0]
 800054a:	4a02      	ldr	r2, [pc, #8]	@ (8000554 <I2C_SlaveByteControlCmd+0x1c>)
 800054c:	4013      	ands	r3, r2
 800054e:	6003      	str	r3, [r0, #0]
}
 8000550:	e7f9      	b.n	8000546 <I2C_SlaveByteControlCmd+0xe>
 8000552:	46c0      	nop			@ (mov r8, r8)
 8000554:	fffeffff 	.word	0xfffeffff

08000558 <I2C_SlaveAddressConfig>:
  /* Check the parameters */
  assert_param(IS_I2C_ALL_PERIPH(I2Cx));
  assert_param(IS_I2C_SLAVE_ADDRESS(Address));
               
  /* Get the old register value */
  tmpreg = I2Cx->CR2;
 8000558:	6843      	ldr	r3, [r0, #4]

  /* Reset I2Cx SADD bit [9:0] */
  tmpreg &= (uint32_t)~((uint32_t)I2C_CR2_SADD);

  /* Set I2Cx SADD */
  tmpreg |= (uint32_t)((uint32_t)Address & I2C_CR2_SADD);
 800055a:	0589      	lsls	r1, r1, #22
  tmpreg &= (uint32_t)~((uint32_t)I2C_CR2_SADD);
 800055c:	0a9b      	lsrs	r3, r3, #10
 800055e:	029b      	lsls	r3, r3, #10
  tmpreg |= (uint32_t)((uint32_t)Address & I2C_CR2_SADD);
 8000560:	0d89      	lsrs	r1, r1, #22
 8000562:	4319      	orrs	r1, r3

  /* Store the new register value */
  I2Cx->CR2 = tmpreg;
 8000564:	6041      	str	r1, [r0, #4]
}
 8000566:	4770      	bx	lr

08000568 <I2C_10BitAddressingModeCmd>:
{
  /* Check the parameters */
  assert_param(IS_I2C_ALL_PERIPH(I2Cx));
  assert_param(IS_FUNCTIONAL_STATE(NewState));
  
  if (NewState != DISABLE)
 8000568:	2900      	cmp	r1, #0
 800056a:	d005      	beq.n	8000578 <I2C_10BitAddressingModeCmd+0x10>
  {
    /* Enable 10-bit addressing mode */
    I2Cx->CR2 |= I2C_CR2_ADD10;
 800056c:	2380      	movs	r3, #128	@ 0x80
 800056e:	6842      	ldr	r2, [r0, #4]
 8000570:	011b      	lsls	r3, r3, #4
 8000572:	4313      	orrs	r3, r2
 8000574:	6043      	str	r3, [r0, #4]
  else
  {
    /* Disable 10-bit addressing mode */
    I2Cx->CR2 &= (uint32_t)~((uint32_t)I2C_CR2_ADD10);
  }
} 
 8000576:	4770      	bx	lr
    I2Cx->CR2 &= (uint32_t)~((uint32_t)I2C_CR2_ADD10);
 8000578:	6843      	ldr	r3, [r0, #4]
 800057a:	4a02      	ldr	r2, [pc, #8]	@ (8000584 <I2C_10BitAddressingModeCmd+0x1c>)
 800057c:	4013      	ands	r3, r2
 800057e:	6043      	str	r3, [r0, #4]
} 
 8000580:	e7f9      	b.n	8000576 <I2C_10BitAddressingModeCmd+0xe>
 8000582:	46c0      	nop			@ (mov r8, r8)
 8000584:	fffff7ff 	.word	0xfffff7ff

08000588 <I2C_AutoEndCmd>:
{
  /* Check the parameters */
  assert_param(IS_I2C_ALL_PERIPH(I2Cx));
  assert_param(IS_FUNCTIONAL_STATE(NewState));
  
  if (NewState != DISABLE)
 8000588:	2900      	cmp	r1, #0
 800058a:	d005      	beq.n	8000598 <I2C_AutoEndCmd+0x10>
  {
    /* Enable Auto end mode */
    I2Cx->CR2 |= I2C_CR2_AUTOEND;
 800058c:	2380      	movs	r3, #128	@ 0x80
 800058e:	6842      	ldr	r2, [r0, #4]
 8000590:	049b      	lsls	r3, r3, #18
 8000592:	4313      	orrs	r3, r2
 8000594:	6043      	str	r3, [r0, #4]
  else
  {
    /* Disable Auto end mode */
    I2Cx->CR2 &= (uint32_t)~((uint32_t)I2C_CR2_AUTOEND);
  }
} 
 8000596:	4770      	bx	lr
    I2Cx->CR2 &= (uint32_t)~((uint32_t)I2C_CR2_AUTOEND);
 8000598:	6843      	ldr	r3, [r0, #4]
 800059a:	4a02      	ldr	r2, [pc, #8]	@ (80005a4 <I2C_AutoEndCmd+0x1c>)
 800059c:	4013      	ands	r3, r2
 800059e:	6043      	str	r3, [r0, #4]
} 
 80005a0:	e7f9      	b.n	8000596 <I2C_AutoEndCmd+0xe>
 80005a2:	46c0      	nop			@ (mov r8, r8)
 80005a4:	fdffffff 	.word	0xfdffffff

080005a8 <I2C_ReloadCmd>:
{
  /* Check the parameters */
  assert_param(IS_I2C_ALL_PERIPH(I2Cx));
  assert_param(IS_FUNCTIONAL_STATE(NewState));
  
  if (NewState != DISABLE)
 80005a8:	2900      	cmp	r1, #0
 80005aa:	d005      	beq.n	80005b8 <I2C_ReloadCmd+0x10>
  {
    /* Enable Auto Reload mode */
    I2Cx->CR2 |= I2C_CR2_RELOAD;
 80005ac:	2380      	movs	r3, #128	@ 0x80
 80005ae:	6842      	ldr	r2, [r0, #4]
 80005b0:	045b      	lsls	r3, r3, #17
 80005b2:	4313      	orrs	r3, r2
 80005b4:	6043      	str	r3, [r0, #4]
  else
  {
    /* Disable Auto Reload mode */
    I2Cx->CR2 &= (uint32_t)~((uint32_t)I2C_CR2_RELOAD);
  }
}
 80005b6:	4770      	bx	lr
    I2Cx->CR2 &= (uint32_t)~((uint32_t)I2C_CR2_RELOAD);
 80005b8:	6843      	ldr	r3, [r0, #4]
 80005ba:	4a02      	ldr	r2, [pc, #8]	@ (80005c4 <I2C_ReloadCmd+0x1c>)
 80005bc:	4013      	ands	r3, r2
 80005be:	6043      	str	r3, [r0, #4]
}
 80005c0:	e7f9      	b.n	80005b6 <I2C_ReloadCmd+0xe>
 80005c2:	46c0      	nop			@ (mov r8, r8)
 80005c4:	feffffff 	.word	0xfeffffff

080005c8 <I2C_NumberOfBytesConfig>:

  /* Check the parameters */
  assert_param(IS_I2C_ALL_PERIPH(I2Cx));

  /* Get the old register value */
  tmpreg = I2Cx->CR2;
 80005c8:	6843      	ldr	r3, [r0, #4]

  /* Reset I2Cx Nbytes bit [7:0] */
  tmpreg &= (uint32_t)~((uint32_t)I2C_CR2_NBYTES);
 80005ca:	4a03      	ldr	r2, [pc, #12]	@ (80005d8 <I2C_NumberOfBytesConfig+0x10>)

  /* Set I2Cx Nbytes */
  tmpreg |= (uint32_t)(((uint32_t)Number_Bytes << 16 ) & I2C_CR2_NBYTES);
 80005cc:	0409      	lsls	r1, r1, #16
  tmpreg &= (uint32_t)~((uint32_t)I2C_CR2_NBYTES);
 80005ce:	4013      	ands	r3, r2
  tmpreg |= (uint32_t)(((uint32_t)Number_Bytes << 16 ) & I2C_CR2_NBYTES);
 80005d0:	4319      	orrs	r1, r3

  /* Store the new register value */
  I2Cx->CR2 = tmpreg;
 80005d2:	6041      	str	r1, [r0, #4]
}  
 80005d4:	4770      	bx	lr
 80005d6:	46c0      	nop			@ (mov r8, r8)
 80005d8:	ff00ffff 	.word	0xff00ffff

080005dc <I2C_MasterRequestConfig>:
/* Check the parameters */
  assert_param(IS_I2C_ALL_PERIPH(I2Cx));
  assert_param(IS_I2C_DIRECTION(I2C_Direction));
  
  /* Test on the direction to set/reset the read/write bit */
  if (I2C_Direction == I2C_Direction_Transmitter)
 80005dc:	2900      	cmp	r1, #0
 80005de:	d104      	bne.n	80005ea <I2C_MasterRequestConfig+0xe>
  {
    /* Request a write Transfer */
    I2Cx->CR2 &= (uint32_t)~((uint32_t)I2C_CR2_RD_WRN);
 80005e0:	6843      	ldr	r3, [r0, #4]
 80005e2:	4a05      	ldr	r2, [pc, #20]	@ (80005f8 <I2C_MasterRequestConfig+0x1c>)
 80005e4:	4013      	ands	r3, r2
 80005e6:	6043      	str	r3, [r0, #4]
  else
  {
    /* Request a read Transfer */
    I2Cx->CR2 |= I2C_CR2_RD_WRN;
  }
}  
 80005e8:	4770      	bx	lr
    I2Cx->CR2 |= I2C_CR2_RD_WRN;
 80005ea:	2380      	movs	r3, #128	@ 0x80
 80005ec:	6842      	ldr	r2, [r0, #4]
 80005ee:	00db      	lsls	r3, r3, #3
 80005f0:	4313      	orrs	r3, r2
 80005f2:	6043      	str	r3, [r0, #4]
}  
 80005f4:	e7f8      	b.n	80005e8 <I2C_MasterRequestConfig+0xc>
 80005f6:	46c0      	nop			@ (mov r8, r8)
 80005f8:	fffffbff 	.word	0xfffffbff

080005fc <I2C_GenerateSTART>:
{
  /* Check the parameters */
  assert_param(IS_I2C_ALL_PERIPH(I2Cx));
  assert_param(IS_FUNCTIONAL_STATE(NewState));
  
  if (NewState != DISABLE)
 80005fc:	2900      	cmp	r1, #0
 80005fe:	d005      	beq.n	800060c <I2C_GenerateSTART+0x10>
  {
    /* Generate a START condition */
    I2Cx->CR2 |= I2C_CR2_START;
 8000600:	2380      	movs	r3, #128	@ 0x80
 8000602:	6842      	ldr	r2, [r0, #4]
 8000604:	019b      	lsls	r3, r3, #6
 8000606:	4313      	orrs	r3, r2
 8000608:	6043      	str	r3, [r0, #4]
  else
  {
    /* Disable the START condition generation */
    I2Cx->CR2 &= (uint32_t)~((uint32_t)I2C_CR2_START);
  }
}  
 800060a:	4770      	bx	lr
    I2Cx->CR2 &= (uint32_t)~((uint32_t)I2C_CR2_START);
 800060c:	6843      	ldr	r3, [r0, #4]
 800060e:	4a02      	ldr	r2, [pc, #8]	@ (8000618 <I2C_GenerateSTART+0x1c>)
 8000610:	4013      	ands	r3, r2
 8000612:	6043      	str	r3, [r0, #4]
}  
 8000614:	e7f9      	b.n	800060a <I2C_GenerateSTART+0xe>
 8000616:	46c0      	nop			@ (mov r8, r8)
 8000618:	ffffdfff 	.word	0xffffdfff

0800061c <I2C_GenerateSTOP>:
{
  /* Check the parameters */
  assert_param(IS_I2C_ALL_PERIPH(I2Cx));
  assert_param(IS_FUNCTIONAL_STATE(NewState));
  
  if (NewState != DISABLE)
 800061c:	2900      	cmp	r1, #0
 800061e:	d005      	beq.n	800062c <I2C_GenerateSTOP+0x10>
  {
    /* Generate a STOP condition */
    I2Cx->CR2 |= I2C_CR2_STOP;
 8000620:	2380      	movs	r3, #128	@ 0x80
 8000622:	6842      	ldr	r2, [r0, #4]
 8000624:	01db      	lsls	r3, r3, #7
 8000626:	4313      	orrs	r3, r2
 8000628:	6043      	str	r3, [r0, #4]
  else
  {
    /* Disable the STOP condition generation */
    I2Cx->CR2 &= (uint32_t)~((uint32_t)I2C_CR2_STOP);
  }
}  
 800062a:	4770      	bx	lr
    I2Cx->CR2 &= (uint32_t)~((uint32_t)I2C_CR2_STOP);
 800062c:	6843      	ldr	r3, [r0, #4]
 800062e:	4a02      	ldr	r2, [pc, #8]	@ (8000638 <I2C_GenerateSTOP+0x1c>)
 8000630:	4013      	ands	r3, r2
 8000632:	6043      	str	r3, [r0, #4]
}  
 8000634:	e7f9      	b.n	800062a <I2C_GenerateSTOP+0xe>
 8000636:	46c0      	nop			@ (mov r8, r8)
 8000638:	ffffbfff 	.word	0xffffbfff

0800063c <I2C_10BitAddressHeaderCmd>:
{
  /* Check the parameters */
  assert_param(IS_I2C_ALL_PERIPH(I2Cx));
  assert_param(IS_FUNCTIONAL_STATE(NewState));
  
  if (NewState != DISABLE)
 800063c:	2900      	cmp	r1, #0
 800063e:	d005      	beq.n	800064c <I2C_10BitAddressHeaderCmd+0x10>
  {
    /* Enable 10-bit header only mode */
    I2Cx->CR2 |= I2C_CR2_HEAD10R;
 8000640:	2380      	movs	r3, #128	@ 0x80
 8000642:	6842      	ldr	r2, [r0, #4]
 8000644:	015b      	lsls	r3, r3, #5
 8000646:	4313      	orrs	r3, r2
 8000648:	6043      	str	r3, [r0, #4]
  else
  {
    /* Disable 10-bit header only mode */
    I2Cx->CR2 &= (uint32_t)~((uint32_t)I2C_CR2_HEAD10R);
  }
}    
 800064a:	4770      	bx	lr
    I2Cx->CR2 &= (uint32_t)~((uint32_t)I2C_CR2_HEAD10R);
 800064c:	6843      	ldr	r3, [r0, #4]
 800064e:	4a02      	ldr	r2, [pc, #8]	@ (8000658 <I2C_10BitAddressHeaderCmd+0x1c>)
 8000650:	4013      	ands	r3, r2
 8000652:	6043      	str	r3, [r0, #4]
}    
 8000654:	e7f9      	b.n	800064a <I2C_10BitAddressHeaderCmd+0xe>
 8000656:	46c0      	nop			@ (mov r8, r8)
 8000658:	ffffefff 	.word	0xffffefff

0800065c <I2C_AcknowledgeConfig>:
{
  /* Check the parameters */
  assert_param(IS_I2C_ALL_PERIPH(I2Cx));
  assert_param(IS_FUNCTIONAL_STATE(NewState));
  
  if (NewState != DISABLE)
 800065c:	2900      	cmp	r1, #0
 800065e:	d004      	beq.n	800066a <I2C_AcknowledgeConfig+0xe>
  {
    /* Enable ACK generation */
    I2Cx->CR2 &= (uint32_t)~((uint32_t)I2C_CR2_NACK);    
 8000660:	6843      	ldr	r3, [r0, #4]
 8000662:	4a05      	ldr	r2, [pc, #20]	@ (8000678 <I2C_AcknowledgeConfig+0x1c>)
 8000664:	4013      	ands	r3, r2
 8000666:	6043      	str	r3, [r0, #4]
  else
  {
    /* Enable NACK generation */
    I2Cx->CR2 |= I2C_CR2_NACK;
  }
}
 8000668:	4770      	bx	lr
    I2Cx->CR2 |= I2C_CR2_NACK;
 800066a:	2380      	movs	r3, #128	@ 0x80
 800066c:	6842      	ldr	r2, [r0, #4]
 800066e:	021b      	lsls	r3, r3, #8
 8000670:	4313      	orrs	r3, r2
 8000672:	6043      	str	r3, [r0, #4]
}
 8000674:	e7f8      	b.n	8000668 <I2C_AcknowledgeConfig+0xc>
 8000676:	46c0      	nop			@ (mov r8, r8)
 8000678:	ffff7fff 	.word	0xffff7fff

0800067c <I2C_GetAddressMatched>:
{
  /* Check the parameters */
  assert_param(IS_I2C_ALL_PERIPH(I2Cx));
  
  /* Return the slave matched address in the SR1 register */
  return (uint8_t)(((uint32_t)I2Cx->ISR & I2C_ISR_ADDCODE) >> 16) ;
 800067c:	23fe      	movs	r3, #254	@ 0xfe
 800067e:	6980      	ldr	r0, [r0, #24]
 8000680:	0c00      	lsrs	r0, r0, #16
 8000682:	4018      	ands	r0, r3
}
 8000684:	4770      	bx	lr
 8000686:	46c0      	nop			@ (mov r8, r8)

08000688 <I2C_GetTransferDirection>:
  
  /* Check the parameters */
  assert_param(IS_I2C_ALL_PERIPH(I2Cx));
  
  /* Return the slave matched address in the SR1 register */
  tmpreg = (uint32_t)(I2Cx->ISR & I2C_ISR_DIR);
 8000688:	6980      	ldr	r0, [r0, #24]
  
  /* If write transfer is requested */
  if (tmpreg == 0)
 800068a:	03c0      	lsls	r0, r0, #15
 800068c:	0fc0      	lsrs	r0, r0, #31
  else
  {
    /* Read transfer is requested */
    direction = I2C_Direction_Receiver;
  }  
  return direction;
 800068e:	0280      	lsls	r0, r0, #10
}
 8000690:	4770      	bx	lr
 8000692:	46c0      	nop			@ (mov r8, r8)

08000694 <I2C_TransferHandling>:
  *            @arg I2C_Generate_Start_Read: Generate Restart for read request.
  *            @arg I2C_Generate_Start_Write: Generate Restart for write request.
  * @retval None
  */
void I2C_TransferHandling(I2C_TypeDef* I2Cx, uint16_t Address, uint8_t Number_Bytes, uint32_t ReloadEndMode, uint32_t StartStopMode)
{
 8000694:	b530      	push	{r4, r5, lr}
  assert_param(IS_I2C_SLAVE_ADDRESS(Address));  
  assert_param(IS_RELOAD_END_MODE(ReloadEndMode));
  assert_param(IS_START_STOP_MODE(StartStopMode));
    
  /* Get the CR2 register value */
  tmpreg = I2Cx->CR2;
 8000696:	6844      	ldr	r4, [r0, #4]
  
  /* clear tmpreg specific bits */
  tmpreg &= (uint32_t)~((uint32_t)(I2C_CR2_SADD | I2C_CR2_NBYTES | I2C_CR2_RELOAD | I2C_CR2_AUTOEND | I2C_CR2_RD_WRN | I2C_CR2_START | I2C_CR2_STOP));
 8000698:	4d05      	ldr	r5, [pc, #20]	@ (80006b0 <I2C_TransferHandling+0x1c>)
  
  /* update tmpreg */
  tmpreg |= (uint32_t)(((uint32_t)Address & I2C_CR2_SADD) | (((uint32_t)Number_Bytes << 16 ) & I2C_CR2_NBYTES) | \
 800069a:	0412      	lsls	r2, r2, #16
  tmpreg &= (uint32_t)~((uint32_t)(I2C_CR2_SADD | I2C_CR2_NBYTES | I2C_CR2_RELOAD | I2C_CR2_AUTOEND | I2C_CR2_RD_WRN | I2C_CR2_START | I2C_CR2_STOP));
 800069c:	402c      	ands	r4, r5
  tmpreg |= (uint32_t)(((uint32_t)Address & I2C_CR2_SADD) | (((uint32_t)Number_Bytes << 16 ) & I2C_CR2_NBYTES) | \
 800069e:	9d03      	ldr	r5, [sp, #12]
 80006a0:	0589      	lsls	r1, r1, #22
 80006a2:	432b      	orrs	r3, r5
 80006a4:	431a      	orrs	r2, r3
 80006a6:	0d89      	lsrs	r1, r1, #22
 80006a8:	430a      	orrs	r2, r1
 80006aa:	4322      	orrs	r2, r4
            (uint32_t)ReloadEndMode | (uint32_t)StartStopMode);
  
  /* update CR2 register */
  I2Cx->CR2 = tmpreg;  
 80006ac:	6042      	str	r2, [r0, #4]
}
 80006ae:	bd30      	pop	{r4, r5, pc}
 80006b0:	fc009800 	.word	0xfc009800

080006b4 <I2C_SMBusAlertCmd>:
{
  /* Check the parameters */
  assert_param(IS_I2C_1_PERIPH(I2Cx));
  assert_param(IS_FUNCTIONAL_STATE(NewState));
  
  if (NewState != DISABLE)
 80006b4:	2900      	cmp	r1, #0
 80006b6:	d005      	beq.n	80006c4 <I2C_SMBusAlertCmd+0x10>
  {
    /* Enable SMBus alert */
    I2Cx->CR1 |= I2C_CR1_ALERTEN;   
 80006b8:	2380      	movs	r3, #128	@ 0x80
 80006ba:	6802      	ldr	r2, [r0, #0]
 80006bc:	03db      	lsls	r3, r3, #15
 80006be:	4313      	orrs	r3, r2
 80006c0:	6003      	str	r3, [r0, #0]
  else
  {
    /* Disable SMBus alert */    
    I2Cx->CR1 &= (uint32_t)~((uint32_t)I2C_CR1_ALERTEN); 
  }
}
 80006c2:	4770      	bx	lr
    I2Cx->CR1 &= (uint32_t)~((uint32_t)I2C_CR1_ALERTEN); 
 80006c4:	6803      	ldr	r3, [r0, #0]
 80006c6:	4a02      	ldr	r2, [pc, #8]	@ (80006d0 <I2C_SMBusAlertCmd+0x1c>)
 80006c8:	4013      	ands	r3, r2
 80006ca:	6003      	str	r3, [r0, #0]
}
 80006cc:	e7f9      	b.n	80006c2 <I2C_SMBusAlertCmd+0xe>
 80006ce:	46c0      	nop			@ (mov r8, r8)
 80006d0:	ffbfffff 	.word	0xffbfffff

080006d4 <I2C_ClockTimeoutCmd>:
{
  /* Check the parameters */
  assert_param(IS_I2C_1_PERIPH(I2Cx));
  assert_param(IS_FUNCTIONAL_STATE(NewState));
  
  if (NewState != DISABLE)
 80006d4:	2900      	cmp	r1, #0
 80006d6:	d005      	beq.n	80006e4 <I2C_ClockTimeoutCmd+0x10>
  {
    /* Enable Clock Timeout */
    I2Cx->TIMEOUTR |= I2C_TIMEOUTR_TIMOUTEN;   
 80006d8:	2380      	movs	r3, #128	@ 0x80
 80006da:	6942      	ldr	r2, [r0, #20]
 80006dc:	021b      	lsls	r3, r3, #8
 80006de:	4313      	orrs	r3, r2
 80006e0:	6143      	str	r3, [r0, #20]
  else
  {
    /* Disable Clock Timeout */    
    I2Cx->TIMEOUTR &= (uint32_t)~((uint32_t)I2C_TIMEOUTR_TIMOUTEN); 
  }
}
 80006e2:	4770      	bx	lr
    I2Cx->TIMEOUTR &= (uint32_t)~((uint32_t)I2C_TIMEOUTR_TIMOUTEN); 
 80006e4:	6943      	ldr	r3, [r0, #20]
 80006e6:	4a02      	ldr	r2, [pc, #8]	@ (80006f0 <I2C_ClockTimeoutCmd+0x1c>)
 80006e8:	4013      	ands	r3, r2
 80006ea:	6143      	str	r3, [r0, #20]
}
 80006ec:	e7f9      	b.n	80006e2 <I2C_ClockTimeoutCmd+0xe>
 80006ee:	46c0      	nop			@ (mov r8, r8)
 80006f0:	ffff7fff 	.word	0xffff7fff

080006f4 <I2C_ExtendedClockTimeoutCmd>:
{
  /* Check the parameters */
  assert_param(IS_I2C_1_PERIPH(I2Cx));
  assert_param(IS_FUNCTIONAL_STATE(NewState));
  
  if (NewState != DISABLE)
 80006f4:	2900      	cmp	r1, #0
 80006f6:	d005      	beq.n	8000704 <I2C_ExtendedClockTimeoutCmd+0x10>
  {
    /* Enable Clock Timeout */
    I2Cx->TIMEOUTR |= I2C_TIMEOUTR_TEXTEN;   
 80006f8:	2380      	movs	r3, #128	@ 0x80
 80006fa:	6942      	ldr	r2, [r0, #20]
 80006fc:	061b      	lsls	r3, r3, #24
 80006fe:	4313      	orrs	r3, r2
 8000700:	6143      	str	r3, [r0, #20]
  else
  {
    /* Disable Clock Timeout */    
    I2Cx->TIMEOUTR &= (uint32_t)~((uint32_t)I2C_TIMEOUTR_TEXTEN); 
  }
}
 8000702:	4770      	bx	lr
    I2Cx->TIMEOUTR &= (uint32_t)~((uint32_t)I2C_TIMEOUTR_TEXTEN); 
 8000704:	6943      	ldr	r3, [r0, #20]
 8000706:	005b      	lsls	r3, r3, #1
 8000708:	085b      	lsrs	r3, r3, #1
 800070a:	6143      	str	r3, [r0, #20]
}
 800070c:	e7f9      	b.n	8000702 <I2C_ExtendedClockTimeoutCmd+0xe>
 800070e:	46c0      	nop			@ (mov r8, r8)

08000710 <I2C_IdleClockTimeoutCmd>:
{
  /* Check the parameters */
  assert_param(IS_I2C_1_PERIPH(I2Cx));
  assert_param(IS_FUNCTIONAL_STATE(NewState));
  
  if (NewState != DISABLE)
 8000710:	2900      	cmp	r1, #0
 8000712:	d005      	beq.n	8000720 <I2C_IdleClockTimeoutCmd+0x10>
  {
    /* Enable Clock Timeout */
    I2Cx->TIMEOUTR |= I2C_TIMEOUTR_TIDLE;   
 8000714:	2380      	movs	r3, #128	@ 0x80
 8000716:	6942      	ldr	r2, [r0, #20]
 8000718:	015b      	lsls	r3, r3, #5
 800071a:	4313      	orrs	r3, r2
 800071c:	6143      	str	r3, [r0, #20]
  else
  {
    /* Disable Clock Timeout */    
    I2Cx->TIMEOUTR &= (uint32_t)~((uint32_t)I2C_TIMEOUTR_TIDLE); 
  }
}
 800071e:	4770      	bx	lr
    I2Cx->TIMEOUTR &= (uint32_t)~((uint32_t)I2C_TIMEOUTR_TIDLE); 
 8000720:	6943      	ldr	r3, [r0, #20]
 8000722:	4a02      	ldr	r2, [pc, #8]	@ (800072c <I2C_IdleClockTimeoutCmd+0x1c>)
 8000724:	4013      	ands	r3, r2
 8000726:	6143      	str	r3, [r0, #20]
}
 8000728:	e7f9      	b.n	800071e <I2C_IdleClockTimeoutCmd+0xe>
 800072a:	46c0      	nop			@ (mov r8, r8)
 800072c:	ffffefff 	.word	0xffffefff

08000730 <I2C_TimeoutAConfig>:
  /* Check the parameters */
  assert_param(IS_I2C_1_PERIPH(I2Cx));
  assert_param(IS_I2C_TIMEOUT(Timeout));
    
  /* Get the old register value */
  tmpreg = I2Cx->TIMEOUTR;
 8000730:	6943      	ldr	r3, [r0, #20]

  /* Reset I2Cx TIMEOUTA bit [11:0] */
  tmpreg &= (uint32_t)~((uint32_t)I2C_TIMEOUTR_TIMEOUTA);

  /* Set I2Cx TIMEOUTA */
  tmpreg |= (uint32_t)((uint32_t)Timeout & I2C_TIMEOUTR_TIMEOUTA) ;
 8000732:	0509      	lsls	r1, r1, #20
  tmpreg &= (uint32_t)~((uint32_t)I2C_TIMEOUTR_TIMEOUTA);
 8000734:	0b1b      	lsrs	r3, r3, #12
 8000736:	031b      	lsls	r3, r3, #12
  tmpreg |= (uint32_t)((uint32_t)Timeout & I2C_TIMEOUTR_TIMEOUTA) ;
 8000738:	0d09      	lsrs	r1, r1, #20
 800073a:	4319      	orrs	r1, r3

  /* Store the new register value */
  I2Cx->TIMEOUTR = tmpreg;
 800073c:	6141      	str	r1, [r0, #20]
}
 800073e:	4770      	bx	lr

08000740 <I2C_TimeoutBConfig>:
  /* Check the parameters */
  assert_param(IS_I2C_1_PERIPH(I2Cx));
  assert_param(IS_I2C_TIMEOUT(Timeout));

  /* Get the old register value */
  tmpreg = I2Cx->TIMEOUTR;
 8000740:	6943      	ldr	r3, [r0, #20]

  /* Reset I2Cx TIMEOUTB bit [11:0] */
  tmpreg &= (uint32_t)~((uint32_t)I2C_TIMEOUTR_TIMEOUTB);
 8000742:	4a04      	ldr	r2, [pc, #16]	@ (8000754 <I2C_TimeoutBConfig+0x14>)

  /* Set I2Cx TIMEOUTB */
  tmpreg |= (uint32_t)(((uint32_t)Timeout << 16) & I2C_TIMEOUTR_TIMEOUTB) ;
 8000744:	0409      	lsls	r1, r1, #16
  tmpreg &= (uint32_t)~((uint32_t)I2C_TIMEOUTR_TIMEOUTB);
 8000746:	4013      	ands	r3, r2
  tmpreg |= (uint32_t)(((uint32_t)Timeout << 16) & I2C_TIMEOUTR_TIMEOUTB) ;
 8000748:	4a03      	ldr	r2, [pc, #12]	@ (8000758 <I2C_TimeoutBConfig+0x18>)
 800074a:	4011      	ands	r1, r2
 800074c:	4319      	orrs	r1, r3

  /* Store the new register value */
  I2Cx->TIMEOUTR = tmpreg;
 800074e:	6141      	str	r1, [r0, #20]
}
 8000750:	4770      	bx	lr
 8000752:	46c0      	nop			@ (mov r8, r8)
 8000754:	f000ffff 	.word	0xf000ffff
 8000758:	0fff0000 	.word	0x0fff0000

0800075c <I2C_CalculatePEC>:
{
  /* Check the parameters */
  assert_param(IS_I2C_1_PERIPH(I2Cx));
  assert_param(IS_FUNCTIONAL_STATE(NewState));
  
  if (NewState != DISABLE)
 800075c:	2900      	cmp	r1, #0
 800075e:	d005      	beq.n	800076c <I2C_CalculatePEC+0x10>
  {
    /* Enable PEC calculation */
    I2Cx->CR1 |= I2C_CR1_PECEN;   
 8000760:	2380      	movs	r3, #128	@ 0x80
 8000762:	6802      	ldr	r2, [r0, #0]
 8000764:	041b      	lsls	r3, r3, #16
 8000766:	4313      	orrs	r3, r2
 8000768:	6003      	str	r3, [r0, #0]
  else
  {
    /* Disable PEC calculation */    
    I2Cx->CR1 &= (uint32_t)~((uint32_t)I2C_CR1_PECEN); 
  }
}
 800076a:	4770      	bx	lr
    I2Cx->CR1 &= (uint32_t)~((uint32_t)I2C_CR1_PECEN); 
 800076c:	6803      	ldr	r3, [r0, #0]
 800076e:	4a02      	ldr	r2, [pc, #8]	@ (8000778 <I2C_CalculatePEC+0x1c>)
 8000770:	4013      	ands	r3, r2
 8000772:	6003      	str	r3, [r0, #0]
}
 8000774:	e7f9      	b.n	800076a <I2C_CalculatePEC+0xe>
 8000776:	46c0      	nop			@ (mov r8, r8)
 8000778:	ff7fffff 	.word	0xff7fffff

0800077c <I2C_PECRequestCmd>:
{
  /* Check the parameters */
  assert_param(IS_I2C_1_PERIPH(I2Cx));
  assert_param(IS_FUNCTIONAL_STATE(NewState));
  
  if (NewState != DISABLE)
 800077c:	2900      	cmp	r1, #0
 800077e:	d005      	beq.n	800078c <I2C_PECRequestCmd+0x10>
  {
    /* Enable PEC transmission/reception request */
    I2Cx->CR1 |= I2C_CR2_PECBYTE;   
 8000780:	2380      	movs	r3, #128	@ 0x80
 8000782:	6802      	ldr	r2, [r0, #0]
 8000784:	04db      	lsls	r3, r3, #19
 8000786:	4313      	orrs	r3, r2
 8000788:	6003      	str	r3, [r0, #0]
  else
  {
    /* Disable PEC transmission/reception request */    
    I2Cx->CR1 &= (uint32_t)~((uint32_t)I2C_CR2_PECBYTE); 
  }
}
 800078a:	4770      	bx	lr
    I2Cx->CR1 &= (uint32_t)~((uint32_t)I2C_CR2_PECBYTE); 
 800078c:	6803      	ldr	r3, [r0, #0]
 800078e:	4a02      	ldr	r2, [pc, #8]	@ (8000798 <I2C_PECRequestCmd+0x1c>)
 8000790:	4013      	ands	r3, r2
 8000792:	6003      	str	r3, [r0, #0]
}
 8000794:	e7f9      	b.n	800078a <I2C_PECRequestCmd+0xe>
 8000796:	46c0      	nop			@ (mov r8, r8)
 8000798:	fbffffff 	.word	0xfbffffff

0800079c <I2C_GetPEC>:
{
  /* Check the parameters */
  assert_param(IS_I2C_1_PERIPH(I2Cx));
  
  /* Return the slave matched address in the SR1 register */
  return (uint8_t)((uint32_t)I2Cx->PECR & I2C_PECR_PEC);
 800079c:	6a00      	ldr	r0, [r0, #32]
 800079e:	b2c0      	uxtb	r0, r0
}
 80007a0:	4770      	bx	lr
 80007a2:	46c0      	nop			@ (mov r8, r8)

080007a4 <I2C_ReadRegister>:
  *            @arg I2C_Register_TXDR: TXDR register.
  * @retval The value of the read register.
  */
uint32_t I2C_ReadRegister(I2C_TypeDef* I2Cx, uint8_t I2C_Register)
{
  __IO uint32_t tmp = 0;
 80007a4:	2300      	movs	r3, #0
{
 80007a6:	b082      	sub	sp, #8
  __IO uint32_t tmp = 0;
 80007a8:	9301      	str	r3, [sp, #4]

  /* Check the parameters */
  assert_param(IS_I2C_ALL_PERIPH(I2Cx));
  assert_param(IS_I2C_REGISTER(I2C_Register));

  tmp = (uint32_t)I2Cx;
 80007aa:	9001      	str	r0, [sp, #4]
  tmp += I2C_Register;
 80007ac:	9b01      	ldr	r3, [sp, #4]
 80007ae:	18c9      	adds	r1, r1, r3
 80007b0:	9101      	str	r1, [sp, #4]

  /* Return the selected register value */
  return (*(__IO uint32_t *) tmp);
 80007b2:	9b01      	ldr	r3, [sp, #4]
 80007b4:	6818      	ldr	r0, [r3, #0]
}
 80007b6:	b002      	add	sp, #8
 80007b8:	4770      	bx	lr
 80007ba:	46c0      	nop			@ (mov r8, r8)

080007bc <I2C_SendData>:
{
  /* Check the parameters */
  assert_param(IS_I2C_ALL_PERIPH(I2Cx));
  
  /* Write in the DR register the data to be sent */
  I2Cx->TXDR = (uint8_t)Data;
 80007bc:	6281      	str	r1, [r0, #40]	@ 0x28
}
 80007be:	4770      	bx	lr

080007c0 <I2C_ReceiveData>:
{
  /* Check the parameters */
  assert_param(IS_I2C_ALL_PERIPH(I2Cx));
  
  /* Return the data in the DR register */
  return (uint8_t)I2Cx->RXDR;
 80007c0:	6a40      	ldr	r0, [r0, #36]	@ 0x24
 80007c2:	b2c0      	uxtb	r0, r0
}  
 80007c4:	4770      	bx	lr
 80007c6:	46c0      	nop			@ (mov r8, r8)

080007c8 <I2C_DMACmd>:
  *            @arg I2C_DMAReq_Rx: Rx DMA transfer request
  * @param  NewState: new state of the selected I2C DMA transfer request.
  *          This parameter can be: ENABLE or DISABLE.
  * @retval None
  */
void I2C_DMACmd(I2C_TypeDef* I2Cx, uint32_t I2C_DMAReq, FunctionalState NewState)
 80007c8:	6803      	ldr	r3, [r0, #0]
 80007ca:	2a00      	cmp	r2, #0
 80007cc:	d002      	beq.n	80007d4 <I2C_DMACmd+0xc>
 80007ce:	4319      	orrs	r1, r3
 80007d0:	6001      	str	r1, [r0, #0]
 80007d2:	4770      	bx	lr
 80007d4:	438b      	bics	r3, r1
 80007d6:	6003      	str	r3, [r0, #0]
 80007d8:	e7fb      	b.n	80007d2 <I2C_DMACmd+0xa>
 80007da:	46c0      	nop			@ (mov r8, r8)

080007dc <I2C_GetFlagStatus>:
  /* Check the parameters */
  assert_param(IS_I2C_ALL_PERIPH(I2Cx));
  assert_param(IS_I2C_GET_FLAG(I2C_FLAG));
  
  /* Get the ISR register value */
  tmpreg = I2Cx->ISR;
 80007dc:	6983      	ldr	r3, [r0, #24]
  
  /* Get flag status */
  tmpreg &= I2C_FLAG;
 80007de:	4019      	ands	r1, r3
 80007e0:	0008      	movs	r0, r1
  
  if(tmpreg != 0)
 80007e2:	1e43      	subs	r3, r0, #1
 80007e4:	4198      	sbcs	r0, r3
  else
  {
    /* I2C_FLAG is reset */
    bitstatus = RESET;
  }
  return bitstatus;
 80007e6:	b2c0      	uxtb	r0, r0
} 
 80007e8:	4770      	bx	lr
 80007ea:	46c0      	nop			@ (mov r8, r8)

080007ec <I2C_ClearFlag>:
  /* Check the parameters */
  assert_param(IS_I2C_ALL_PERIPH(I2Cx));
  assert_param(IS_I2C_CLEAR_FLAG(I2C_FLAG));

  /* Clear the selected flag */
  I2Cx->ICR = I2C_FLAG;
 80007ec:	61c1      	str	r1, [r0, #28]
  }
 80007ee:	4770      	bx	lr

080007f0 <I2C_GetITStatus>:
  assert_param(IS_I2C_ALL_PERIPH(I2Cx));
  assert_param(IS_I2C_GET_IT(I2C_IT));

  /* Check if the interrupt source is enabled or not */
  /* If Error interrupt */
  if((I2C_IT & ERROR_IT_MASK) != 0)
 80007f0:	23fc      	movs	r3, #252	@ 0xfc
 80007f2:	019b      	lsls	r3, r3, #6
 80007f4:	4219      	tst	r1, r3
 80007f6:	d00a      	beq.n	800080e <I2C_GetITStatus+0x1e>
  {
    enablestatus = (uint32_t)((I2C_CR1_ERRIE) & (I2Cx->CR1));
 80007f8:	2380      	movs	r3, #128	@ 0x80
 80007fa:	6802      	ldr	r2, [r0, #0]
 80007fc:	4013      	ands	r3, r2
  {
    enablestatus = (uint32_t)((I2C_IT) & (I2Cx->CR1));
  }
  
  /* Get the ISR register value */
  tmpreg = I2Cx->ISR;
 80007fe:	6982      	ldr	r2, [r0, #24]
    bitstatus = SET;
  }
  else
  {
    /* I2C_IT is reset */
    bitstatus = RESET;
 8000800:	2000      	movs	r0, #0
  if((tmpreg != RESET) && enablestatus)
 8000802:	420a      	tst	r2, r1
 8000804:	d002      	beq.n	800080c <I2C_GetITStatus+0x1c>
 8000806:	1e5a      	subs	r2, r3, #1
 8000808:	4193      	sbcs	r3, r2
 800080a:	b2d8      	uxtb	r0, r3
  }

  /* Return the I2C_IT status */
  return bitstatus;
}
 800080c:	4770      	bx	lr
  else if((I2C_IT & TC_IT_MASK) != 0)
 800080e:	23c0      	movs	r3, #192	@ 0xc0
 8000810:	420b      	tst	r3, r1
 8000812:	d003      	beq.n	800081c <I2C_GetITStatus+0x2c>
    enablestatus = (uint32_t)((I2C_CR1_TCIE) & (I2Cx->CR1));
 8000814:	6802      	ldr	r2, [r0, #0]
 8000816:	3b80      	subs	r3, #128	@ 0x80
 8000818:	4013      	ands	r3, r2
 800081a:	e7f0      	b.n	80007fe <I2C_GetITStatus+0xe>
    enablestatus = (uint32_t)((I2C_IT) & (I2Cx->CR1));
 800081c:	6803      	ldr	r3, [r0, #0]
 800081e:	400b      	ands	r3, r1
 8000820:	e7ed      	b.n	80007fe <I2C_GetITStatus+0xe>
 8000822:	46c0      	nop			@ (mov r8, r8)

08000824 <I2C_ClearITPendingBit>:
  *            @arg I2C_IT_PECERR: PEC error in reception
  *            @arg I2C_IT_TIMEOUT: Timeout or Tlow detection flag
  *            @arg I2C_IT_ALERT: SMBus Alert
  * @retval The new state of I2C_IT (SET or RESET).
  */
void I2C_ClearITPendingBit(I2C_TypeDef* I2Cx, uint32_t I2C_IT)
 8000824:	61c1      	str	r1, [r0, #28]
 8000826:	4770      	bx	lr

08000828 <RCC_DeInit>:
  * @retval None
  */
void RCC_DeInit(void)
{
  /* Set HSION bit */
  RCC->CR |= (uint32_t)0x00000001;
 8000828:	2101      	movs	r1, #1
 800082a:	4b11      	ldr	r3, [pc, #68]	@ (8000870 <RCC_DeInit+0x48>)

  /* Reset SW[1:0], HPRE[3:0], PPRE[2:0], ADCPRE and MCOSEL[2:0] bits */
  RCC->CFGR &= (uint32_t)0xF8FFB80C;
 800082c:	4811      	ldr	r0, [pc, #68]	@ (8000874 <RCC_DeInit+0x4c>)
  RCC->CR |= (uint32_t)0x00000001;
 800082e:	681a      	ldr	r2, [r3, #0]
 8000830:	430a      	orrs	r2, r1
 8000832:	601a      	str	r2, [r3, #0]
  RCC->CFGR &= (uint32_t)0xF8FFB80C;
 8000834:	685a      	ldr	r2, [r3, #4]
 8000836:	4002      	ands	r2, r0
 8000838:	605a      	str	r2, [r3, #4]
  
  /* Reset HSEON, CSSON and PLLON bits */
  RCC->CR &= (uint32_t)0xFEF6FFFF;
 800083a:	681a      	ldr	r2, [r3, #0]
 800083c:	480e      	ldr	r0, [pc, #56]	@ (8000878 <RCC_DeInit+0x50>)
 800083e:	4002      	ands	r2, r0
 8000840:	601a      	str	r2, [r3, #0]

  /* Reset HSEBYP bit */
  RCC->CR &= (uint32_t)0xFFFBFFFF;
 8000842:	681a      	ldr	r2, [r3, #0]
 8000844:	480d      	ldr	r0, [pc, #52]	@ (800087c <RCC_DeInit+0x54>)
 8000846:	4002      	ands	r2, r0
 8000848:	601a      	str	r2, [r3, #0]

  /* Reset PLLSRC, PLLXTPRE and PLLMUL[3:0] bits */
  RCC->CFGR &= (uint32_t)0xFFC0FFFF;
 800084a:	685a      	ldr	r2, [r3, #4]
 800084c:	480c      	ldr	r0, [pc, #48]	@ (8000880 <RCC_DeInit+0x58>)
 800084e:	4002      	ands	r2, r0

  /* Reset PREDIV1[3:0] bits */
  RCC->CFGR2 &= (uint32_t)0xFFFFFFF0;
 8000850:	200f      	movs	r0, #15
  RCC->CFGR &= (uint32_t)0xFFC0FFFF;
 8000852:	605a      	str	r2, [r3, #4]
  RCC->CFGR2 &= (uint32_t)0xFFFFFFF0;
 8000854:	6ada      	ldr	r2, [r3, #44]	@ 0x2c
 8000856:	4382      	bics	r2, r0
 8000858:	62da      	str	r2, [r3, #44]	@ 0x2c

  /* Reset USARTSW[1:0], I2CSW, CECSW and ADCSW bits */
  RCC->CFGR3 &= (uint32_t)0xFFFFFEAC;
 800085a:	6b1a      	ldr	r2, [r3, #48]	@ 0x30
 800085c:	4809      	ldr	r0, [pc, #36]	@ (8000884 <RCC_DeInit+0x5c>)
 800085e:	4002      	ands	r2, r0
 8000860:	631a      	str	r2, [r3, #48]	@ 0x30
  
  /* Reset HSI14 bit */
  RCC->CR2 &= (uint32_t)0xFFFFFFFE;
 8000862:	6b5a      	ldr	r2, [r3, #52]	@ 0x34
 8000864:	438a      	bics	r2, r1
 8000866:	635a      	str	r2, [r3, #52]	@ 0x34

  /* Disable all interrupts */
  RCC->CIR = 0x00000000;
 8000868:	2200      	movs	r2, #0
 800086a:	609a      	str	r2, [r3, #8]
}
 800086c:	4770      	bx	lr
 800086e:	46c0      	nop			@ (mov r8, r8)
 8000870:	40021000 	.word	0x40021000
 8000874:	f8ffb80c 	.word	0xf8ffb80c
 8000878:	fef6ffff 	.word	0xfef6ffff
 800087c:	fffbffff 	.word	0xfffbffff
 8000880:	ffc0ffff 	.word	0xffc0ffff
 8000884:	fffffeac 	.word	0xfffffeac

08000888 <RCC_HSEConfig>:
{
  /* Check the parameters */
  assert_param(IS_RCC_HSE(RCC_HSE));

  /* Reset HSEON and HSEBYP bits before configuring the HSE ------------------*/
  *(__IO uint8_t *) CR_BYTE2_ADDRESS = RCC_HSE_OFF;
 8000888:	2200      	movs	r2, #0
 800088a:	4b02      	ldr	r3, [pc, #8]	@ (8000894 <RCC_HSEConfig+0xc>)
 800088c:	701a      	strb	r2, [r3, #0]

  /* Set the new HSE configuration -------------------------------------------*/
  *(__IO uint8_t *) CR_BYTE2_ADDRESS = RCC_HSE;
 800088e:	7018      	strb	r0, [r3, #0]

}
 8000890:	4770      	bx	lr
 8000892:	46c0      	nop			@ (mov r8, r8)
 8000894:	40021002 	.word	0x40021002

08000898 <RCC_WaitForHSEStartUp>:
  *          - SUCCESS: HSE oscillator is stable and ready to use
  *          - ERROR: HSE oscillator not yet ready
  */
ErrorStatus RCC_WaitForHSEStartUp(void)
{
  __IO uint32_t StartUpCounter = 0;
 8000898:	2300      	movs	r3, #0
  }    

  /* Get the flag position */
  tmp = RCC_FLAG & FLAG_MASK;

  if ((statusreg & ((uint32_t)1 << tmp)) != (uint32_t)RESET)
 800089a:	2280      	movs	r2, #128	@ 0x80
  } while((StartUpCounter != HSE_STARTUP_TIMEOUT) && (HSEStatus == RESET));
 800089c:	20a0      	movs	r0, #160	@ 0xa0
{
 800089e:	b082      	sub	sp, #8
    statusreg = RCC->CR;
 80008a0:	490b      	ldr	r1, [pc, #44]	@ (80008d0 <RCC_WaitForHSEStartUp+0x38>)
  __IO uint32_t StartUpCounter = 0;
 80008a2:	9301      	str	r3, [sp, #4]
  if ((statusreg & ((uint32_t)1 << tmp)) != (uint32_t)RESET)
 80008a4:	0292      	lsls	r2, r2, #10
  } while((StartUpCounter != HSE_STARTUP_TIMEOUT) && (HSEStatus == RESET));
 80008a6:	00c0      	lsls	r0, r0, #3
    statusreg = RCC->CR;
 80008a8:	680b      	ldr	r3, [r1, #0]
  if ((statusreg & ((uint32_t)1 << tmp)) != (uint32_t)RESET)
 80008aa:	4213      	tst	r3, r2
 80008ac:	d009      	beq.n	80008c2 <RCC_WaitForHSEStartUp+0x2a>
    StartUpCounter++;  
 80008ae:	9b01      	ldr	r3, [sp, #4]
 80008b0:	3301      	adds	r3, #1
 80008b2:	9301      	str	r3, [sp, #4]
  } while((StartUpCounter != HSE_STARTUP_TIMEOUT) && (HSEStatus == RESET));
 80008b4:	9b01      	ldr	r3, [sp, #4]
    statusreg = RCC->CR;
 80008b6:	4b06      	ldr	r3, [pc, #24]	@ (80008d0 <RCC_WaitForHSEStartUp+0x38>)
 80008b8:	6818      	ldr	r0, [r3, #0]
  if ((statusreg & ((uint32_t)1 << tmp)) != (uint32_t)RESET)
 80008ba:	0380      	lsls	r0, r0, #14
  return (status);
 80008bc:	0fc0      	lsrs	r0, r0, #31
}
 80008be:	b002      	add	sp, #8
 80008c0:	4770      	bx	lr
    StartUpCounter++;  
 80008c2:	9b01      	ldr	r3, [sp, #4]
 80008c4:	3301      	adds	r3, #1
 80008c6:	9301      	str	r3, [sp, #4]
  } while((StartUpCounter != HSE_STARTUP_TIMEOUT) && (HSEStatus == RESET));
 80008c8:	9b01      	ldr	r3, [sp, #4]
 80008ca:	4283      	cmp	r3, r0
 80008cc:	d1ec      	bne.n	80008a8 <RCC_WaitForHSEStartUp+0x10>
 80008ce:	e7f2      	b.n	80008b6 <RCC_WaitForHSEStartUp+0x1e>
 80008d0:	40021000 	.word	0x40021000

080008d4 <RCC_AdjustHSICalibrationValue>:
  tmpreg &= ~RCC_CR_HSITRIM;
 80008d4:	21f8      	movs	r1, #248	@ 0xf8
  tmpreg = RCC->CR;
 80008d6:	4a03      	ldr	r2, [pc, #12]	@ (80008e4 <RCC_AdjustHSICalibrationValue+0x10>)
  tmpreg |= (uint32_t)HSICalibrationValue << 3;
 80008d8:	00c0      	lsls	r0, r0, #3
  tmpreg = RCC->CR;
 80008da:	6813      	ldr	r3, [r2, #0]
  tmpreg &= ~RCC_CR_HSITRIM;
 80008dc:	438b      	bics	r3, r1
  tmpreg |= (uint32_t)HSICalibrationValue << 3;
 80008de:	4318      	orrs	r0, r3
  RCC->CR = tmpreg;
 80008e0:	6010      	str	r0, [r2, #0]
}
 80008e2:	4770      	bx	lr
 80008e4:	40021000 	.word	0x40021000

080008e8 <RCC_HSICmd>:
    RCC->CR |= RCC_CR_HSION;
 80008e8:	4a05      	ldr	r2, [pc, #20]	@ (8000900 <RCC_HSICmd+0x18>)
 80008ea:	2101      	movs	r1, #1
 80008ec:	6813      	ldr	r3, [r2, #0]
  if (NewState != DISABLE)
 80008ee:	2800      	cmp	r0, #0
 80008f0:	d002      	beq.n	80008f8 <RCC_HSICmd+0x10>
    RCC->CR |= RCC_CR_HSION;
 80008f2:	430b      	orrs	r3, r1
 80008f4:	6013      	str	r3, [r2, #0]
}
 80008f6:	4770      	bx	lr
    RCC->CR &= ~RCC_CR_HSION;
 80008f8:	438b      	bics	r3, r1
 80008fa:	6013      	str	r3, [r2, #0]
}
 80008fc:	e7fb      	b.n	80008f6 <RCC_HSICmd+0xe>
 80008fe:	46c0      	nop			@ (mov r8, r8)
 8000900:	40021000 	.word	0x40021000

08000904 <RCC_AdjustHSI14CalibrationValue>:
  tmpreg &= ~RCC_CR2_HSI14TRIM;
 8000904:	21f8      	movs	r1, #248	@ 0xf8
  tmpreg = RCC->CR2;
 8000906:	4a03      	ldr	r2, [pc, #12]	@ (8000914 <RCC_AdjustHSI14CalibrationValue+0x10>)
  tmpreg |= (uint32_t)HSI14CalibrationValue << 3;
 8000908:	00c0      	lsls	r0, r0, #3
  tmpreg = RCC->CR2;
 800090a:	6b53      	ldr	r3, [r2, #52]	@ 0x34
  tmpreg &= ~RCC_CR2_HSI14TRIM;
 800090c:	438b      	bics	r3, r1
  tmpreg |= (uint32_t)HSI14CalibrationValue << 3;
 800090e:	4318      	orrs	r0, r3
  RCC->CR2 = tmpreg;
 8000910:	6350      	str	r0, [r2, #52]	@ 0x34
}
 8000912:	4770      	bx	lr
 8000914:	40021000 	.word	0x40021000

08000918 <RCC_HSI14Cmd>:
    RCC->CR2 |= RCC_CR2_HSI14ON;
 8000918:	4a05      	ldr	r2, [pc, #20]	@ (8000930 <RCC_HSI14Cmd+0x18>)
 800091a:	2101      	movs	r1, #1
 800091c:	6b53      	ldr	r3, [r2, #52]	@ 0x34
  if (NewState != DISABLE)
 800091e:	2800      	cmp	r0, #0
 8000920:	d002      	beq.n	8000928 <RCC_HSI14Cmd+0x10>
    RCC->CR2 |= RCC_CR2_HSI14ON;
 8000922:	430b      	orrs	r3, r1
 8000924:	6353      	str	r3, [r2, #52]	@ 0x34
}
 8000926:	4770      	bx	lr
    RCC->CR2 &= ~RCC_CR2_HSI14ON;
 8000928:	438b      	bics	r3, r1
 800092a:	6353      	str	r3, [r2, #52]	@ 0x34
}
 800092c:	e7fb      	b.n	8000926 <RCC_HSI14Cmd+0xe>
 800092e:	46c0      	nop			@ (mov r8, r8)
 8000930:	40021000 	.word	0x40021000

08000934 <RCC_HSI14ADCRequestCmd>:
    RCC->CR2 &= ~RCC_CR2_HSI14DIS;
 8000934:	4a05      	ldr	r2, [pc, #20]	@ (800094c <RCC_HSI14ADCRequestCmd+0x18>)
 8000936:	2104      	movs	r1, #4
 8000938:	6b53      	ldr	r3, [r2, #52]	@ 0x34
  if (NewState != DISABLE)
 800093a:	2800      	cmp	r0, #0
 800093c:	d002      	beq.n	8000944 <RCC_HSI14ADCRequestCmd+0x10>
    RCC->CR2 &= ~RCC_CR2_HSI14DIS;
 800093e:	438b      	bics	r3, r1
 8000940:	6353      	str	r3, [r2, #52]	@ 0x34
}
 8000942:	4770      	bx	lr
    RCC->CR2 |= RCC_CR2_HSI14DIS;
 8000944:	430b      	orrs	r3, r1
 8000946:	6353      	str	r3, [r2, #52]	@ 0x34
}
 8000948:	e7fb      	b.n	8000942 <RCC_HSI14ADCRequestCmd+0xe>
 800094a:	46c0      	nop			@ (mov r8, r8)
 800094c:	40021000 	.word	0x40021000

08000950 <RCC_LSEConfig>:
  RCC->BDCR &= ~(RCC_BDCR_LSEON);
 8000950:	2101      	movs	r1, #1
 8000952:	4b06      	ldr	r3, [pc, #24]	@ (800096c <RCC_LSEConfig+0x1c>)
 8000954:	6a1a      	ldr	r2, [r3, #32]
 8000956:	438a      	bics	r2, r1
 8000958:	621a      	str	r2, [r3, #32]
  RCC->BDCR &= ~(RCC_BDCR_LSEBYP);
 800095a:	6a1a      	ldr	r2, [r3, #32]
 800095c:	3103      	adds	r1, #3
 800095e:	438a      	bics	r2, r1
 8000960:	621a      	str	r2, [r3, #32]
  RCC->BDCR |= RCC_LSE;
 8000962:	6a1a      	ldr	r2, [r3, #32]
 8000964:	4302      	orrs	r2, r0
 8000966:	621a      	str	r2, [r3, #32]
}
 8000968:	4770      	bx	lr
 800096a:	46c0      	nop			@ (mov r8, r8)
 800096c:	40021000 	.word	0x40021000

08000970 <RCC_LSEDriveConfig>:
  RCC->BDCR &= ~(RCC_BDCR_LSEDRV);
 8000970:	2118      	movs	r1, #24
 8000972:	4b04      	ldr	r3, [pc, #16]	@ (8000984 <RCC_LSEDriveConfig+0x14>)
 8000974:	6a1a      	ldr	r2, [r3, #32]
 8000976:	438a      	bics	r2, r1
 8000978:	621a      	str	r2, [r3, #32]
  RCC->BDCR |= RCC_LSEDrive;
 800097a:	6a1a      	ldr	r2, [r3, #32]
 800097c:	4302      	orrs	r2, r0
 800097e:	621a      	str	r2, [r3, #32]
}
 8000980:	4770      	bx	lr
 8000982:	46c0      	nop			@ (mov r8, r8)
 8000984:	40021000 	.word	0x40021000

08000988 <RCC_LSICmd>:
    RCC->CSR |= RCC_CSR_LSION;
 8000988:	4a05      	ldr	r2, [pc, #20]	@ (80009a0 <RCC_LSICmd+0x18>)
 800098a:	2101      	movs	r1, #1
 800098c:	6a53      	ldr	r3, [r2, #36]	@ 0x24
  if (NewState != DISABLE)
 800098e:	2800      	cmp	r0, #0
 8000990:	d002      	beq.n	8000998 <RCC_LSICmd+0x10>
    RCC->CSR |= RCC_CSR_LSION;
 8000992:	430b      	orrs	r3, r1
 8000994:	6253      	str	r3, [r2, #36]	@ 0x24
}
 8000996:	4770      	bx	lr
    RCC->CSR &= ~RCC_CSR_LSION;
 8000998:	438b      	bics	r3, r1
 800099a:	6253      	str	r3, [r2, #36]	@ 0x24
}
 800099c:	e7fb      	b.n	8000996 <RCC_LSICmd+0xe>
 800099e:	46c0      	nop			@ (mov r8, r8)
 80009a0:	40021000 	.word	0x40021000

080009a4 <RCC_PLLConfig>:
  RCC->CFGR &= ~(RCC_CFGR_PLLMULL | RCC_CFGR_PLLSRC);
 80009a4:	4a05      	ldr	r2, [pc, #20]	@ (80009bc <RCC_PLLConfig+0x18>)
{
 80009a6:	b510      	push	{r4, lr}
  RCC->CFGR &= ~(RCC_CFGR_PLLMULL | RCC_CFGR_PLLSRC);
 80009a8:	6853      	ldr	r3, [r2, #4]
 80009aa:	4c05      	ldr	r4, [pc, #20]	@ (80009c0 <RCC_PLLConfig+0x1c>)
 80009ac:	4023      	ands	r3, r4
 80009ae:	6053      	str	r3, [r2, #4]
  RCC->CFGR |= (uint32_t)(RCC_PLLSource | RCC_PLLMul);
 80009b0:	6853      	ldr	r3, [r2, #4]
 80009b2:	430b      	orrs	r3, r1
 80009b4:	4303      	orrs	r3, r0
 80009b6:	6053      	str	r3, [r2, #4]
}
 80009b8:	bd10      	pop	{r4, pc}
 80009ba:	46c0      	nop			@ (mov r8, r8)
 80009bc:	40021000 	.word	0x40021000
 80009c0:	ffc2ffff 	.word	0xffc2ffff

080009c4 <RCC_PLLCmd>:
    RCC->CR |= RCC_CR_PLLON;
 80009c4:	4a06      	ldr	r2, [pc, #24]	@ (80009e0 <RCC_PLLCmd+0x1c>)
  if (NewState != DISABLE)
 80009c6:	2800      	cmp	r0, #0
 80009c8:	d005      	beq.n	80009d6 <RCC_PLLCmd+0x12>
    RCC->CR |= RCC_CR_PLLON;
 80009ca:	2380      	movs	r3, #128	@ 0x80
 80009cc:	6811      	ldr	r1, [r2, #0]
 80009ce:	045b      	lsls	r3, r3, #17
 80009d0:	430b      	orrs	r3, r1
 80009d2:	6013      	str	r3, [r2, #0]
}
 80009d4:	4770      	bx	lr
    RCC->CR &= ~RCC_CR_PLLON;
 80009d6:	6813      	ldr	r3, [r2, #0]
 80009d8:	4902      	ldr	r1, [pc, #8]	@ (80009e4 <RCC_PLLCmd+0x20>)
 80009da:	400b      	ands	r3, r1
 80009dc:	6013      	str	r3, [r2, #0]
}
 80009de:	e7f9      	b.n	80009d4 <RCC_PLLCmd+0x10>
 80009e0:	40021000 	.word	0x40021000
 80009e4:	feffffff 	.word	0xfeffffff

080009e8 <RCC_PREDIV1Config>:
  tmpreg &= ~(RCC_CFGR2_PREDIV1);
 80009e8:	210f      	movs	r1, #15
  tmpreg = RCC->CFGR2;
 80009ea:	4a03      	ldr	r2, [pc, #12]	@ (80009f8 <RCC_PREDIV1Config+0x10>)
 80009ec:	6ad3      	ldr	r3, [r2, #44]	@ 0x2c
  tmpreg &= ~(RCC_CFGR2_PREDIV1);
 80009ee:	438b      	bics	r3, r1
  tmpreg |= RCC_PREDIV1_Div;
 80009f0:	4303      	orrs	r3, r0
  RCC->CFGR2 = tmpreg;
 80009f2:	62d3      	str	r3, [r2, #44]	@ 0x2c
}
 80009f4:	4770      	bx	lr
 80009f6:	46c0      	nop			@ (mov r8, r8)
 80009f8:	40021000 	.word	0x40021000

080009fc <RCC_ClockSecuritySystemCmd>:
    RCC->CR |= RCC_CR_CSSON;
 80009fc:	4a06      	ldr	r2, [pc, #24]	@ (8000a18 <RCC_ClockSecuritySystemCmd+0x1c>)
  if (NewState != DISABLE)
 80009fe:	2800      	cmp	r0, #0
 8000a00:	d005      	beq.n	8000a0e <RCC_ClockSecuritySystemCmd+0x12>
    RCC->CR |= RCC_CR_CSSON;
 8000a02:	2380      	movs	r3, #128	@ 0x80
 8000a04:	6811      	ldr	r1, [r2, #0]
 8000a06:	031b      	lsls	r3, r3, #12
 8000a08:	430b      	orrs	r3, r1
 8000a0a:	6013      	str	r3, [r2, #0]
}
 8000a0c:	4770      	bx	lr
    RCC->CR &= ~RCC_CR_CSSON;
 8000a0e:	6813      	ldr	r3, [r2, #0]
 8000a10:	4902      	ldr	r1, [pc, #8]	@ (8000a1c <RCC_ClockSecuritySystemCmd+0x20>)
 8000a12:	400b      	ands	r3, r1
 8000a14:	6013      	str	r3, [r2, #0]
}
 8000a16:	e7f9      	b.n	8000a0c <RCC_ClockSecuritySystemCmd+0x10>
 8000a18:	40021000 	.word	0x40021000
 8000a1c:	fff7ffff 	.word	0xfff7ffff

08000a20 <RCC_MCOConfig>:
  *(__IO uint8_t *) CFGR_BYTE3_ADDRESS =  RCC_MCOSource;
 8000a20:	4b01      	ldr	r3, [pc, #4]	@ (8000a28 <RCC_MCOConfig+0x8>)
 8000a22:	7018      	strb	r0, [r3, #0]
}
 8000a24:	4770      	bx	lr
 8000a26:	46c0      	nop			@ (mov r8, r8)
 8000a28:	40021007 	.word	0x40021007

08000a2c <RCC_SYSCLKConfig>:
  tmpreg &= ~RCC_CFGR_SW;
 8000a2c:	2103      	movs	r1, #3
  tmpreg = RCC->CFGR;
 8000a2e:	4a03      	ldr	r2, [pc, #12]	@ (8000a3c <RCC_SYSCLKConfig+0x10>)
 8000a30:	6853      	ldr	r3, [r2, #4]
  tmpreg &= ~RCC_CFGR_SW;
 8000a32:	438b      	bics	r3, r1
  tmpreg |= RCC_SYSCLKSource;
 8000a34:	4303      	orrs	r3, r0
  RCC->CFGR = tmpreg;
 8000a36:	6053      	str	r3, [r2, #4]
}
 8000a38:	4770      	bx	lr
 8000a3a:	46c0      	nop			@ (mov r8, r8)
 8000a3c:	40021000 	.word	0x40021000

08000a40 <RCC_GetSYSCLKSource>:
  return ((uint8_t)(RCC->CFGR & RCC_CFGR_SWS));
 8000a40:	200c      	movs	r0, #12
 8000a42:	4b02      	ldr	r3, [pc, #8]	@ (8000a4c <RCC_GetSYSCLKSource+0xc>)
 8000a44:	685b      	ldr	r3, [r3, #4]
 8000a46:	4018      	ands	r0, r3
}
 8000a48:	4770      	bx	lr
 8000a4a:	46c0      	nop			@ (mov r8, r8)
 8000a4c:	40021000 	.word	0x40021000

08000a50 <RCC_HCLKConfig>:
  tmpreg &= ~RCC_CFGR_HPRE;
 8000a50:	21f0      	movs	r1, #240	@ 0xf0
  tmpreg = RCC->CFGR;
 8000a52:	4a03      	ldr	r2, [pc, #12]	@ (8000a60 <RCC_HCLKConfig+0x10>)
 8000a54:	6853      	ldr	r3, [r2, #4]
  tmpreg &= ~RCC_CFGR_HPRE;
 8000a56:	438b      	bics	r3, r1
  tmpreg |= RCC_SYSCLK;
 8000a58:	4303      	orrs	r3, r0
  RCC->CFGR = tmpreg;
 8000a5a:	6053      	str	r3, [r2, #4]
}
 8000a5c:	4770      	bx	lr
 8000a5e:	46c0      	nop			@ (mov r8, r8)
 8000a60:	40021000 	.word	0x40021000

08000a64 <RCC_PCLKConfig>:
  tmpreg = RCC->CFGR;
 8000a64:	4a03      	ldr	r2, [pc, #12]	@ (8000a74 <RCC_PCLKConfig+0x10>)
  tmpreg &= ~RCC_CFGR_PPRE;
 8000a66:	4904      	ldr	r1, [pc, #16]	@ (8000a78 <RCC_PCLKConfig+0x14>)
  tmpreg = RCC->CFGR;
 8000a68:	6853      	ldr	r3, [r2, #4]
  tmpreg &= ~RCC_CFGR_PPRE;
 8000a6a:	400b      	ands	r3, r1
  tmpreg |= RCC_HCLK;
 8000a6c:	4303      	orrs	r3, r0
  RCC->CFGR = tmpreg;
 8000a6e:	6053      	str	r3, [r2, #4]
}
 8000a70:	4770      	bx	lr
 8000a72:	46c0      	nop			@ (mov r8, r8)
 8000a74:	40021000 	.word	0x40021000
 8000a78:	fffff8ff 	.word	0xfffff8ff

08000a7c <RCC_ADCCLKConfig>:
  RCC->CFGR &= ~RCC_CFGR_ADCPRE;
 8000a7c:	4b09      	ldr	r3, [pc, #36]	@ (8000aa4 <RCC_ADCCLKConfig+0x28>)
 8000a7e:	490a      	ldr	r1, [pc, #40]	@ (8000aa8 <RCC_ADCCLKConfig+0x2c>)
 8000a80:	685a      	ldr	r2, [r3, #4]
 8000a82:	400a      	ands	r2, r1
 8000a84:	605a      	str	r2, [r3, #4]
  RCC->CFGR |= RCC_ADCCLK & 0xFFFF;
 8000a86:	6859      	ldr	r1, [r3, #4]
 8000a88:	0402      	lsls	r2, r0, #16
 8000a8a:	0c12      	lsrs	r2, r2, #16
 8000a8c:	430a      	orrs	r2, r1
 8000a8e:	605a      	str	r2, [r3, #4]
  RCC->CFGR3 &= ~RCC_CFGR3_ADCSW; 
 8000a90:	6b1a      	ldr	r2, [r3, #48]	@ 0x30
 8000a92:	4906      	ldr	r1, [pc, #24]	@ (8000aac <RCC_ADCCLKConfig+0x30>)
  RCC->CFGR3 |= RCC_ADCCLK >> 16;  
 8000a94:	0c00      	lsrs	r0, r0, #16
  RCC->CFGR3 &= ~RCC_CFGR3_ADCSW; 
 8000a96:	400a      	ands	r2, r1
 8000a98:	631a      	str	r2, [r3, #48]	@ 0x30
  RCC->CFGR3 |= RCC_ADCCLK >> 16;  
 8000a9a:	6b1a      	ldr	r2, [r3, #48]	@ 0x30
 8000a9c:	4310      	orrs	r0, r2
 8000a9e:	6318      	str	r0, [r3, #48]	@ 0x30
}
 8000aa0:	4770      	bx	lr
 8000aa2:	46c0      	nop			@ (mov r8, r8)
 8000aa4:	40021000 	.word	0x40021000
 8000aa8:	ffffbfff 	.word	0xffffbfff
 8000aac:	fffffeff 	.word	0xfffffeff

08000ab0 <RCC_CECCLKConfig>:
  RCC->CFGR3 &= ~RCC_CFGR3_CECSW;
 8000ab0:	2140      	movs	r1, #64	@ 0x40
 8000ab2:	4b04      	ldr	r3, [pc, #16]	@ (8000ac4 <RCC_CECCLKConfig+0x14>)
 8000ab4:	6b1a      	ldr	r2, [r3, #48]	@ 0x30
 8000ab6:	438a      	bics	r2, r1
 8000ab8:	631a      	str	r2, [r3, #48]	@ 0x30
  RCC->CFGR3 |= RCC_CECCLK;
 8000aba:	6b1a      	ldr	r2, [r3, #48]	@ 0x30
 8000abc:	4302      	orrs	r2, r0
 8000abe:	631a      	str	r2, [r3, #48]	@ 0x30
}
 8000ac0:	4770      	bx	lr
 8000ac2:	46c0      	nop			@ (mov r8, r8)
 8000ac4:	40021000 	.word	0x40021000

08000ac8 <RCC_I2CCLKConfig>:
  RCC->CFGR3 &= ~RCC_CFGR3_I2C1SW;
 8000ac8:	2110      	movs	r1, #16
 8000aca:	4b04      	ldr	r3, [pc, #16]	@ (8000adc <RCC_I2CCLKConfig+0x14>)
 8000acc:	6b1a      	ldr	r2, [r3, #48]	@ 0x30
 8000ace:	438a      	bics	r2, r1
 8000ad0:	631a      	str	r2, [r3, #48]	@ 0x30
  RCC->CFGR3 |= RCC_I2CCLK;
 8000ad2:	6b1a      	ldr	r2, [r3, #48]	@ 0x30
 8000ad4:	4302      	orrs	r2, r0
 8000ad6:	631a      	str	r2, [r3, #48]	@ 0x30
}
 8000ad8:	4770      	bx	lr
 8000ada:	46c0      	nop			@ (mov r8, r8)
 8000adc:	40021000 	.word	0x40021000

08000ae0 <RCC_USARTCLKConfig>:
  RCC->CFGR3 &= ~RCC_CFGR3_USART1SW;
 8000ae0:	2103      	movs	r1, #3
 8000ae2:	4b04      	ldr	r3, [pc, #16]	@ (8000af4 <RCC_USARTCLKConfig+0x14>)
 8000ae4:	6b1a      	ldr	r2, [r3, #48]	@ 0x30
 8000ae6:	438a      	bics	r2, r1
 8000ae8:	631a      	str	r2, [r3, #48]	@ 0x30
  RCC->CFGR3 |= RCC_USARTCLK;
 8000aea:	6b1a      	ldr	r2, [r3, #48]	@ 0x30
 8000aec:	4302      	orrs	r2, r0
 8000aee:	631a      	str	r2, [r3, #48]	@ 0x30
}
 8000af0:	4770      	bx	lr
 8000af2:	46c0      	nop			@ (mov r8, r8)
 8000af4:	40021000 	.word	0x40021000

08000af8 <RCC_GetClocksFreq>:
  tmp = RCC->CFGR & RCC_CFGR_SWS;
 8000af8:	230c      	movs	r3, #12
 8000afa:	4a34      	ldr	r2, [pc, #208]	@ (8000bcc <RCC_GetClocksFreq+0xd4>)
{
 8000afc:	b570      	push	{r4, r5, r6, lr}
  tmp = RCC->CFGR & RCC_CFGR_SWS;
 8000afe:	6851      	ldr	r1, [r2, #4]
{
 8000b00:	0004      	movs	r4, r0
  tmp = RCC->CFGR & RCC_CFGR_SWS;
 8000b02:	400b      	ands	r3, r1
  switch (tmp)
 8000b04:	2b08      	cmp	r3, #8
 8000b06:	d042      	beq.n	8000b8e <RCC_GetClocksFreq+0x96>
 8000b08:	4831      	ldr	r0, [pc, #196]	@ (8000bd0 <RCC_GetClocksFreq+0xd8>)
  RCC_Clocks->HCLK_Frequency = RCC_Clocks->SYSCLK_Frequency >> presc;
 8000b0a:	0002      	movs	r2, r0
  tmp = RCC->CFGR & RCC_CFGR_HPRE;
 8000b0c:	492f      	ldr	r1, [pc, #188]	@ (8000bcc <RCC_GetClocksFreq+0xd4>)
      RCC_Clocks->SYSCLK_Frequency = HSI_VALUE;
 8000b0e:	6020      	str	r0, [r4, #0]
  tmp = RCC->CFGR & RCC_CFGR_HPRE;
 8000b10:	684b      	ldr	r3, [r1, #4]
  presc = APBAHBPrescTable[tmp]; 
 8000b12:	4d30      	ldr	r5, [pc, #192]	@ (8000bd4 <RCC_GetClocksFreq+0xdc>)
  tmp = tmp >> 4;
 8000b14:	061b      	lsls	r3, r3, #24
 8000b16:	0f1b      	lsrs	r3, r3, #28
  presc = APBAHBPrescTable[tmp]; 
 8000b18:	5ceb      	ldrb	r3, [r5, r3]
  RCC_Clocks->HCLK_Frequency = RCC_Clocks->SYSCLK_Frequency >> presc;
 8000b1a:	40da      	lsrs	r2, r3
 8000b1c:	6062      	str	r2, [r4, #4]
  tmp = RCC->CFGR & RCC_CFGR_PPRE;
 8000b1e:	684b      	ldr	r3, [r1, #4]
  tmp = tmp >> 8;
 8000b20:	055b      	lsls	r3, r3, #21
 8000b22:	0f5b      	lsrs	r3, r3, #29
  presc = APBAHBPrescTable[tmp];
 8000b24:	5ceb      	ldrb	r3, [r5, r3]
  RCC_Clocks->PCLK_Frequency = RCC_Clocks->HCLK_Frequency >> presc;
 8000b26:	40da      	lsrs	r2, r3
 8000b28:	60a2      	str	r2, [r4, #8]
  if((RCC->CFGR3 & RCC_CFGR3_ADCSW) != RCC_CFGR3_ADCSW)
 8000b2a:	6b0b      	ldr	r3, [r1, #48]	@ 0x30
 8000b2c:	05db      	lsls	r3, r3, #23
 8000b2e:	d51b      	bpl.n	8000b68 <RCC_GetClocksFreq+0x70>
    if((RCC->CFGR & RCC_CFGR_ADCPRE) != RCC_CFGR_ADCPRE)
 8000b30:	6849      	ldr	r1, [r1, #4]
      RCC_Clocks->ADCCLK_Frequency = RCC_Clocks->PCLK_Frequency >> 2;
 8000b32:	0893      	lsrs	r3, r2, #2
    if((RCC->CFGR & RCC_CFGR_ADCPRE) != RCC_CFGR_ADCPRE)
 8000b34:	0449      	lsls	r1, r1, #17
 8000b36:	d528      	bpl.n	8000b8a <RCC_GetClocksFreq+0x92>
    RCC_Clocks->CECCLK_Frequency = HSI_VALUE / 244;
 8000b38:	2511      	movs	r5, #17
  if((RCC->CFGR3 & RCC_CFGR3_CECSW) != RCC_CFGR3_CECSW)
 8000b3a:	4924      	ldr	r1, [pc, #144]	@ (8000bcc <RCC_GetClocksFreq+0xd4>)
    RCC_Clocks->ADCCLK_Frequency = HSI14_VALUE;
 8000b3c:	60e3      	str	r3, [r4, #12]
  if((RCC->CFGR3 & RCC_CFGR3_CECSW) != RCC_CFGR3_CECSW)
 8000b3e:	6b0b      	ldr	r3, [r1, #48]	@ 0x30
 8000b40:	065b      	lsls	r3, r3, #25
    RCC_Clocks->CECCLK_Frequency = HSI_VALUE / 244;
 8000b42:	17db      	asrs	r3, r3, #31
 8000b44:	43ab      	bics	r3, r5
 8000b46:	4d24      	ldr	r5, [pc, #144]	@ (8000bd8 <RCC_GetClocksFreq+0xe0>)
 8000b48:	46ac      	mov	ip, r5
 8000b4a:	4463      	add	r3, ip
 8000b4c:	6123      	str	r3, [r4, #16]
  if((RCC->CFGR3 & RCC_CFGR3_I2C1SW) != RCC_CFGR3_I2C1SW)
 8000b4e:	6b0b      	ldr	r3, [r1, #48]	@ 0x30
    RCC_Clocks->I2C1CLK_Frequency = RCC_Clocks->SYSCLK_Frequency;
 8000b50:	0001      	movs	r1, r0
  if((RCC->CFGR3 & RCC_CFGR3_I2C1SW) != RCC_CFGR3_I2C1SW)
 8000b52:	06db      	lsls	r3, r3, #27
 8000b54:	d400      	bmi.n	8000b58 <RCC_GetClocksFreq+0x60>
    RCC_Clocks->I2C1CLK_Frequency = HSI_VALUE;
 8000b56:	491e      	ldr	r1, [pc, #120]	@ (8000bd0 <RCC_GetClocksFreq+0xd8>)
  if((RCC->CFGR3 & RCC_CFGR3_USART1SW) == 0x0)
 8000b58:	2303      	movs	r3, #3
 8000b5a:	6161      	str	r1, [r4, #20]
 8000b5c:	491b      	ldr	r1, [pc, #108]	@ (8000bcc <RCC_GetClocksFreq+0xd4>)
 8000b5e:	6b0d      	ldr	r5, [r1, #48]	@ 0x30
 8000b60:	422b      	tst	r3, r5
 8000b62:	d103      	bne.n	8000b6c <RCC_GetClocksFreq+0x74>
    RCC_Clocks->USART1CLK_Frequency = RCC_Clocks->PCLK_Frequency;
 8000b64:	61a2      	str	r2, [r4, #24]
}
 8000b66:	bd70      	pop	{r4, r5, r6, pc}
 8000b68:	4b1c      	ldr	r3, [pc, #112]	@ (8000bdc <RCC_GetClocksFreq+0xe4>)
 8000b6a:	e7e5      	b.n	8000b38 <RCC_GetClocksFreq+0x40>
  else if((RCC->CFGR3 & RCC_CFGR3_USART1SW) == RCC_CFGR3_USART1SW_0)
 8000b6c:	6b0a      	ldr	r2, [r1, #48]	@ 0x30
 8000b6e:	401a      	ands	r2, r3
 8000b70:	2a01      	cmp	r2, #1
 8000b72:	d01c      	beq.n	8000bae <RCC_GetClocksFreq+0xb6>
  else if((RCC->CFGR3 & RCC_CFGR3_USART1SW) == RCC_CFGR3_USART1SW_1)
 8000b74:	6b0a      	ldr	r2, [r1, #48]	@ 0x30
 8000b76:	401a      	ands	r2, r3
 8000b78:	2a02      	cmp	r2, #2
 8000b7a:	d022      	beq.n	8000bc2 <RCC_GetClocksFreq+0xca>
  else if((RCC->CFGR3 & RCC_CFGR3_USART1SW) == RCC_CFGR3_USART1SW)
 8000b7c:	6b0a      	ldr	r2, [r1, #48]	@ 0x30
 8000b7e:	4013      	ands	r3, r2
 8000b80:	2b03      	cmp	r3, #3
 8000b82:	d1f0      	bne.n	8000b66 <RCC_GetClocksFreq+0x6e>
    RCC_Clocks->USART1CLK_Frequency = HSI_VALUE;
 8000b84:	4b12      	ldr	r3, [pc, #72]	@ (8000bd0 <RCC_GetClocksFreq+0xd8>)
 8000b86:	61a3      	str	r3, [r4, #24]
}
 8000b88:	e7ed      	b.n	8000b66 <RCC_GetClocksFreq+0x6e>
      RCC_Clocks->ADCCLK_Frequency = RCC_Clocks->PCLK_Frequency >> 1;
 8000b8a:	0853      	lsrs	r3, r2, #1
 8000b8c:	e7d4      	b.n	8000b38 <RCC_GetClocksFreq+0x40>
      pllmull = ( pllmull >> 18) + 2;
 8000b8e:	210f      	movs	r1, #15
      pllmull = RCC->CFGR & RCC_CFGR_PLLMULL;
 8000b90:	6850      	ldr	r0, [r2, #4]
      pllsource = RCC->CFGR & RCC_CFGR_PLLSRC;
 8000b92:	6853      	ldr	r3, [r2, #4]
      pllmull = ( pllmull >> 18) + 2;
 8000b94:	0c80      	lsrs	r0, r0, #18
 8000b96:	4008      	ands	r0, r1
 8000b98:	1c85      	adds	r5, r0, #2
      if (pllsource == 0x00)
 8000b9a:	03db      	lsls	r3, r3, #15
 8000b9c:	d409      	bmi.n	8000bb2 <RCC_GetClocksFreq+0xba>
        RCC_Clocks->SYSCLK_Frequency = (HSI_VALUE >> 1) * pllmull;
 8000b9e:	016a      	lsls	r2, r5, #5
 8000ba0:	1b52      	subs	r2, r2, r5
 8000ba2:	0193      	lsls	r3, r2, #6
 8000ba4:	1a9b      	subs	r3, r3, r2
 8000ba6:	00db      	lsls	r3, r3, #3
 8000ba8:	195b      	adds	r3, r3, r5
 8000baa:	0218      	lsls	r0, r3, #8
 8000bac:	e7ad      	b.n	8000b0a <RCC_GetClocksFreq+0x12>
    RCC_Clocks->USART1CLK_Frequency = RCC_Clocks->SYSCLK_Frequency;
 8000bae:	61a0      	str	r0, [r4, #24]
 8000bb0:	e7d9      	b.n	8000b66 <RCC_GetClocksFreq+0x6e>
        prediv1factor = (RCC->CFGR2 & RCC_CFGR2_PREDIV1) + 1;
 8000bb2:	6ad3      	ldr	r3, [r2, #44]	@ 0x2c
        RCC_Clocks->SYSCLK_Frequency = (HSE_VALUE / prediv1factor) * pllmull; 
 8000bb4:	4806      	ldr	r0, [pc, #24]	@ (8000bd0 <RCC_GetClocksFreq+0xd8>)
        prediv1factor = (RCC->CFGR2 & RCC_CFGR2_PREDIV1) + 1;
 8000bb6:	4019      	ands	r1, r3
 8000bb8:	3101      	adds	r1, #1
        RCC_Clocks->SYSCLK_Frequency = (HSE_VALUE / prediv1factor) * pllmull; 
 8000bba:	f000 f8c5 	bl	8000d48 <__udivsi3>
 8000bbe:	4368      	muls	r0, r5
 8000bc0:	e7a3      	b.n	8000b0a <RCC_GetClocksFreq+0x12>
    RCC_Clocks->USART1CLK_Frequency = LSE_VALUE;
 8000bc2:	2380      	movs	r3, #128	@ 0x80
 8000bc4:	021b      	lsls	r3, r3, #8
 8000bc6:	61a3      	str	r3, [r4, #24]
 8000bc8:	e7cd      	b.n	8000b66 <RCC_GetClocksFreq+0x6e>
 8000bca:	46c0      	nop			@ (mov r8, r8)
 8000bcc:	40021000 	.word	0x40021000
 8000bd0:	007a1200 	.word	0x007a1200
 8000bd4:	08002514 	.word	0x08002514
 8000bd8:	00008012 	.word	0x00008012
 8000bdc:	00d59f80 	.word	0x00d59f80

08000be0 <RCC_RTCCLKConfig>:
  RCC->BDCR |= RCC_RTCCLKSource;
 8000be0:	4a02      	ldr	r2, [pc, #8]	@ (8000bec <RCC_RTCCLKConfig+0xc>)
 8000be2:	6a13      	ldr	r3, [r2, #32]
 8000be4:	4303      	orrs	r3, r0
 8000be6:	6213      	str	r3, [r2, #32]
}
 8000be8:	4770      	bx	lr
 8000bea:	46c0      	nop			@ (mov r8, r8)
 8000bec:	40021000 	.word	0x40021000

08000bf0 <RCC_RTCCLKCmd>:
    RCC->BDCR |= RCC_BDCR_RTCEN;
 8000bf0:	4a06      	ldr	r2, [pc, #24]	@ (8000c0c <RCC_RTCCLKCmd+0x1c>)
  if (NewState != DISABLE)
 8000bf2:	2800      	cmp	r0, #0
 8000bf4:	d005      	beq.n	8000c02 <RCC_RTCCLKCmd+0x12>
    RCC->BDCR |= RCC_BDCR_RTCEN;
 8000bf6:	2380      	movs	r3, #128	@ 0x80
 8000bf8:	6a11      	ldr	r1, [r2, #32]
 8000bfa:	021b      	lsls	r3, r3, #8
 8000bfc:	430b      	orrs	r3, r1
 8000bfe:	6213      	str	r3, [r2, #32]
}
 8000c00:	4770      	bx	lr
    RCC->BDCR &= ~RCC_BDCR_RTCEN;
 8000c02:	6a13      	ldr	r3, [r2, #32]
 8000c04:	4902      	ldr	r1, [pc, #8]	@ (8000c10 <RCC_RTCCLKCmd+0x20>)
 8000c06:	400b      	ands	r3, r1
 8000c08:	6213      	str	r3, [r2, #32]
}
 8000c0a:	e7f9      	b.n	8000c00 <RCC_RTCCLKCmd+0x10>
 8000c0c:	40021000 	.word	0x40021000
 8000c10:	ffff7fff 	.word	0xffff7fff

08000c14 <RCC_BackupResetCmd>:
    RCC->BDCR |= RCC_BDCR_BDRST;
 8000c14:	4a06      	ldr	r2, [pc, #24]	@ (8000c30 <RCC_BackupResetCmd+0x1c>)
  if (NewState != DISABLE)
 8000c16:	2800      	cmp	r0, #0
 8000c18:	d005      	beq.n	8000c26 <RCC_BackupResetCmd+0x12>
    RCC->BDCR |= RCC_BDCR_BDRST;
 8000c1a:	2380      	movs	r3, #128	@ 0x80
 8000c1c:	6a11      	ldr	r1, [r2, #32]
 8000c1e:	025b      	lsls	r3, r3, #9
 8000c20:	430b      	orrs	r3, r1
 8000c22:	6213      	str	r3, [r2, #32]
}
 8000c24:	4770      	bx	lr
    RCC->BDCR &= ~RCC_BDCR_BDRST;
 8000c26:	6a13      	ldr	r3, [r2, #32]
 8000c28:	4902      	ldr	r1, [pc, #8]	@ (8000c34 <RCC_BackupResetCmd+0x20>)
 8000c2a:	400b      	ands	r3, r1
 8000c2c:	6213      	str	r3, [r2, #32]
}
 8000c2e:	e7f9      	b.n	8000c24 <RCC_BackupResetCmd+0x10>
 8000c30:	40021000 	.word	0x40021000
 8000c34:	fffeffff 	.word	0xfffeffff

08000c38 <RCC_AHBPeriphClockCmd>:
    RCC->AHBENR |= RCC_AHBPeriph;
 8000c38:	4a04      	ldr	r2, [pc, #16]	@ (8000c4c <RCC_AHBPeriphClockCmd+0x14>)
 8000c3a:	6953      	ldr	r3, [r2, #20]
  if (NewState != DISABLE)
 8000c3c:	2900      	cmp	r1, #0
 8000c3e:	d002      	beq.n	8000c46 <RCC_AHBPeriphClockCmd+0xe>
    RCC->AHBENR |= RCC_AHBPeriph;
 8000c40:	4303      	orrs	r3, r0
 8000c42:	6153      	str	r3, [r2, #20]
}
 8000c44:	4770      	bx	lr
    RCC->AHBENR &= ~RCC_AHBPeriph;
 8000c46:	4383      	bics	r3, r0
 8000c48:	6153      	str	r3, [r2, #20]
}
 8000c4a:	e7fb      	b.n	8000c44 <RCC_AHBPeriphClockCmd+0xc>
 8000c4c:	40021000 	.word	0x40021000

08000c50 <RCC_APB2PeriphClockCmd>:
    RCC->APB2ENR |= RCC_APB2Periph;
 8000c50:	4a04      	ldr	r2, [pc, #16]	@ (8000c64 <RCC_APB2PeriphClockCmd+0x14>)
 8000c52:	6993      	ldr	r3, [r2, #24]
  if (NewState != DISABLE)
 8000c54:	2900      	cmp	r1, #0
 8000c56:	d002      	beq.n	8000c5e <RCC_APB2PeriphClockCmd+0xe>
    RCC->APB2ENR |= RCC_APB2Periph;
 8000c58:	4303      	orrs	r3, r0
 8000c5a:	6193      	str	r3, [r2, #24]
}
 8000c5c:	4770      	bx	lr
    RCC->APB2ENR &= ~RCC_APB2Periph;
 8000c5e:	4383      	bics	r3, r0
 8000c60:	6193      	str	r3, [r2, #24]
}
 8000c62:	e7fb      	b.n	8000c5c <RCC_APB2PeriphClockCmd+0xc>
 8000c64:	40021000 	.word	0x40021000

08000c68 <RCC_APB1PeriphClockCmd>:
    RCC->APB1ENR |= RCC_APB1Periph;
 8000c68:	4a04      	ldr	r2, [pc, #16]	@ (8000c7c <RCC_APB1PeriphClockCmd+0x14>)
 8000c6a:	69d3      	ldr	r3, [r2, #28]
  if (NewState != DISABLE)
 8000c6c:	2900      	cmp	r1, #0
 8000c6e:	d002      	beq.n	8000c76 <RCC_APB1PeriphClockCmd+0xe>
    RCC->APB1ENR |= RCC_APB1Periph;
 8000c70:	4303      	orrs	r3, r0
 8000c72:	61d3      	str	r3, [r2, #28]
}
 8000c74:	4770      	bx	lr
    RCC->APB1ENR &= ~RCC_APB1Periph;
 8000c76:	4383      	bics	r3, r0
 8000c78:	61d3      	str	r3, [r2, #28]
}
 8000c7a:	e7fb      	b.n	8000c74 <RCC_APB1PeriphClockCmd+0xc>
 8000c7c:	40021000 	.word	0x40021000

08000c80 <RCC_AHBPeriphResetCmd>:
    RCC->AHBRSTR |= RCC_AHBPeriph;
 8000c80:	4a04      	ldr	r2, [pc, #16]	@ (8000c94 <RCC_AHBPeriphResetCmd+0x14>)
 8000c82:	6a93      	ldr	r3, [r2, #40]	@ 0x28
  if (NewState != DISABLE)
 8000c84:	2900      	cmp	r1, #0
 8000c86:	d002      	beq.n	8000c8e <RCC_AHBPeriphResetCmd+0xe>
    RCC->AHBRSTR |= RCC_AHBPeriph;
 8000c88:	4303      	orrs	r3, r0
 8000c8a:	6293      	str	r3, [r2, #40]	@ 0x28
}
 8000c8c:	4770      	bx	lr
    RCC->AHBRSTR &= ~RCC_AHBPeriph;
 8000c8e:	4383      	bics	r3, r0
 8000c90:	6293      	str	r3, [r2, #40]	@ 0x28
}
 8000c92:	e7fb      	b.n	8000c8c <RCC_AHBPeriphResetCmd+0xc>
 8000c94:	40021000 	.word	0x40021000

08000c98 <RCC_APB2PeriphResetCmd>:
    RCC->APB2RSTR |= RCC_APB2Periph;
 8000c98:	4a04      	ldr	r2, [pc, #16]	@ (8000cac <RCC_APB2PeriphResetCmd+0x14>)
 8000c9a:	68d3      	ldr	r3, [r2, #12]
  if (NewState != DISABLE)
 8000c9c:	2900      	cmp	r1, #0
 8000c9e:	d002      	beq.n	8000ca6 <RCC_APB2PeriphResetCmd+0xe>
    RCC->APB2RSTR |= RCC_APB2Periph;
 8000ca0:	4303      	orrs	r3, r0
 8000ca2:	60d3      	str	r3, [r2, #12]
}
 8000ca4:	4770      	bx	lr
    RCC->APB2RSTR &= ~RCC_APB2Periph;
 8000ca6:	4383      	bics	r3, r0
 8000ca8:	60d3      	str	r3, [r2, #12]
}
 8000caa:	e7fb      	b.n	8000ca4 <RCC_APB2PeriphResetCmd+0xc>
 8000cac:	40021000 	.word	0x40021000

08000cb0 <RCC_APB1PeriphResetCmd>:
    RCC->APB1RSTR |= RCC_APB1Periph;
 8000cb0:	4a04      	ldr	r2, [pc, #16]	@ (8000cc4 <RCC_APB1PeriphResetCmd+0x14>)
 8000cb2:	6913      	ldr	r3, [r2, #16]
  if (NewState != DISABLE)
 8000cb4:	2900      	cmp	r1, #0
 8000cb6:	d002      	beq.n	8000cbe <RCC_APB1PeriphResetCmd+0xe>
    RCC->APB1RSTR |= RCC_APB1Periph;
 8000cb8:	4303      	orrs	r3, r0
 8000cba:	6113      	str	r3, [r2, #16]
}
 8000cbc:	4770      	bx	lr
    RCC->APB1RSTR &= ~RCC_APB1Periph;
 8000cbe:	4383      	bics	r3, r0
 8000cc0:	6113      	str	r3, [r2, #16]
}
 8000cc2:	e7fb      	b.n	8000cbc <RCC_APB1PeriphResetCmd+0xc>
 8000cc4:	40021000 	.word	0x40021000

08000cc8 <RCC_ITConfig>:
    *(__IO uint8_t *) CIR_BYTE1_ADDRESS |= RCC_IT;
 8000cc8:	4a04      	ldr	r2, [pc, #16]	@ (8000cdc <RCC_ITConfig+0x14>)
 8000cca:	7813      	ldrb	r3, [r2, #0]
  if (NewState != DISABLE)
 8000ccc:	2900      	cmp	r1, #0
 8000cce:	d002      	beq.n	8000cd6 <RCC_ITConfig+0xe>
    *(__IO uint8_t *) CIR_BYTE1_ADDRESS |= RCC_IT;
 8000cd0:	4303      	orrs	r3, r0
 8000cd2:	7013      	strb	r3, [r2, #0]
}
 8000cd4:	4770      	bx	lr
    *(__IO uint8_t *) CIR_BYTE1_ADDRESS &= (uint8_t)~RCC_IT;
 8000cd6:	4383      	bics	r3, r0
 8000cd8:	7013      	strb	r3, [r2, #0]
}
 8000cda:	e7fb      	b.n	8000cd4 <RCC_ITConfig+0xc>
 8000cdc:	40021009 	.word	0x40021009

08000ce0 <RCC_GetFlagStatus>:
  tmp = RCC_FLAG >> 5;
 8000ce0:	0943      	lsrs	r3, r0, #5
  if (tmp == 0)               /* The flag to check is in CR register */
 8000ce2:	d107      	bne.n	8000cf4 <RCC_GetFlagStatus+0x14>
    statusreg = RCC->CR;
 8000ce4:	4b0a      	ldr	r3, [pc, #40]	@ (8000d10 <RCC_GetFlagStatus+0x30>)
 8000ce6:	681a      	ldr	r2, [r3, #0]
  tmp = RCC_FLAG & FLAG_MASK;
 8000ce8:	231f      	movs	r3, #31
 8000cea:	4003      	ands	r3, r0
  if ((statusreg & ((uint32_t)1 << tmp)) != (uint32_t)RESET)
 8000cec:	40da      	lsrs	r2, r3
  else
  {
    bitstatus = RESET;
  }
  /* Return the flag status */
  return bitstatus;
 8000cee:	2001      	movs	r0, #1
 8000cf0:	4010      	ands	r0, r2
}
 8000cf2:	4770      	bx	lr
  else if (tmp == 1)          /* The flag to check is in BDCR register */
 8000cf4:	2b01      	cmp	r3, #1
 8000cf6:	d004      	beq.n	8000d02 <RCC_GetFlagStatus+0x22>
  else if (tmp == 2)          /* The flag to check is in CSR register */
 8000cf8:	2b02      	cmp	r3, #2
 8000cfa:	d005      	beq.n	8000d08 <RCC_GetFlagStatus+0x28>
    statusreg = RCC->CR2;
 8000cfc:	4b04      	ldr	r3, [pc, #16]	@ (8000d10 <RCC_GetFlagStatus+0x30>)
 8000cfe:	6b5a      	ldr	r2, [r3, #52]	@ 0x34
 8000d00:	e7f2      	b.n	8000ce8 <RCC_GetFlagStatus+0x8>
    statusreg = RCC->BDCR;
 8000d02:	4b03      	ldr	r3, [pc, #12]	@ (8000d10 <RCC_GetFlagStatus+0x30>)
 8000d04:	6a1a      	ldr	r2, [r3, #32]
 8000d06:	e7ef      	b.n	8000ce8 <RCC_GetFlagStatus+0x8>
    statusreg = RCC->CSR;
 8000d08:	4b01      	ldr	r3, [pc, #4]	@ (8000d10 <RCC_GetFlagStatus+0x30>)
 8000d0a:	6a5a      	ldr	r2, [r3, #36]	@ 0x24
 8000d0c:	e7ec      	b.n	8000ce8 <RCC_GetFlagStatus+0x8>
 8000d0e:	46c0      	nop			@ (mov r8, r8)
 8000d10:	40021000 	.word	0x40021000

08000d14 <RCC_ClearFlag>:
  * @retval None
  */
void RCC_ClearFlag(void)
{
  /* Set RMVF bit to clear the reset flags */
  RCC->CSR |= RCC_CSR_RMVF;
 8000d14:	2380      	movs	r3, #128	@ 0x80
 8000d16:	4a03      	ldr	r2, [pc, #12]	@ (8000d24 <RCC_ClearFlag+0x10>)
 8000d18:	045b      	lsls	r3, r3, #17
 8000d1a:	6a51      	ldr	r1, [r2, #36]	@ 0x24
 8000d1c:	430b      	orrs	r3, r1
 8000d1e:	6253      	str	r3, [r2, #36]	@ 0x24
}
 8000d20:	4770      	bx	lr
 8000d22:	46c0      	nop			@ (mov r8, r8)
 8000d24:	40021000 	.word	0x40021000

08000d28 <RCC_GetITStatus>:
  
  /* Check the parameters */
  assert_param(IS_RCC_GET_IT(RCC_IT));
  
  /* Check the status of the specified RCC interrupt */
  if ((RCC->CIR & RCC_IT) != (uint32_t)RESET)
 8000d28:	4b03      	ldr	r3, [pc, #12]	@ (8000d38 <RCC_GetITStatus+0x10>)
 8000d2a:	689b      	ldr	r3, [r3, #8]
 8000d2c:	4003      	ands	r3, r0
 8000d2e:	1e5a      	subs	r2, r3, #1
 8000d30:	4193      	sbcs	r3, r2
  else
  {
    bitstatus = RESET;
  }
  /* Return the RCC_IT status */
  return  bitstatus;
 8000d32:	b2d8      	uxtb	r0, r3
}
 8000d34:	4770      	bx	lr
 8000d36:	46c0      	nop			@ (mov r8, r8)
 8000d38:	40021000 	.word	0x40021000

08000d3c <RCC_ClearITPendingBit>:
  /* Check the parameters */
  assert_param(IS_RCC_CLEAR_IT(RCC_IT));
  
  /* Perform Byte access to RCC_CIR[23:16] bits to clear the selected interrupt
     pending bits */
  *(__IO uint8_t *) CIR_BYTE2_ADDRESS = RCC_IT;
 8000d3c:	4b01      	ldr	r3, [pc, #4]	@ (8000d44 <RCC_ClearITPendingBit+0x8>)
 8000d3e:	7018      	strb	r0, [r3, #0]
}
 8000d40:	4770      	bx	lr
 8000d42:	46c0      	nop			@ (mov r8, r8)
 8000d44:	4002100a 	.word	0x4002100a

08000d48 <__udivsi3>:
 8000d48:	2200      	movs	r2, #0
 8000d4a:	0843      	lsrs	r3, r0, #1
 8000d4c:	428b      	cmp	r3, r1
 8000d4e:	d374      	bcc.n	8000e3a <__udivsi3+0xf2>
 8000d50:	0903      	lsrs	r3, r0, #4
 8000d52:	428b      	cmp	r3, r1
 8000d54:	d35f      	bcc.n	8000e16 <__udivsi3+0xce>
 8000d56:	0a03      	lsrs	r3, r0, #8
 8000d58:	428b      	cmp	r3, r1
 8000d5a:	d344      	bcc.n	8000de6 <__udivsi3+0x9e>
 8000d5c:	0b03      	lsrs	r3, r0, #12
 8000d5e:	428b      	cmp	r3, r1
 8000d60:	d328      	bcc.n	8000db4 <__udivsi3+0x6c>
 8000d62:	0c03      	lsrs	r3, r0, #16
 8000d64:	428b      	cmp	r3, r1
 8000d66:	d30d      	bcc.n	8000d84 <__udivsi3+0x3c>
 8000d68:	22ff      	movs	r2, #255	@ 0xff
 8000d6a:	0209      	lsls	r1, r1, #8
 8000d6c:	ba12      	rev	r2, r2
 8000d6e:	0c03      	lsrs	r3, r0, #16
 8000d70:	428b      	cmp	r3, r1
 8000d72:	d302      	bcc.n	8000d7a <__udivsi3+0x32>
 8000d74:	1212      	asrs	r2, r2, #8
 8000d76:	0209      	lsls	r1, r1, #8
 8000d78:	d065      	beq.n	8000e46 <__udivsi3+0xfe>
 8000d7a:	0b03      	lsrs	r3, r0, #12
 8000d7c:	428b      	cmp	r3, r1
 8000d7e:	d319      	bcc.n	8000db4 <__udivsi3+0x6c>
 8000d80:	e000      	b.n	8000d84 <__udivsi3+0x3c>
 8000d82:	0a09      	lsrs	r1, r1, #8
 8000d84:	0bc3      	lsrs	r3, r0, #15
 8000d86:	428b      	cmp	r3, r1
 8000d88:	d301      	bcc.n	8000d8e <__udivsi3+0x46>
 8000d8a:	03cb      	lsls	r3, r1, #15
 8000d8c:	1ac0      	subs	r0, r0, r3
 8000d8e:	4152      	adcs	r2, r2
 8000d90:	0b83      	lsrs	r3, r0, #14
 8000d92:	428b      	cmp	r3, r1
 8000d94:	d301      	bcc.n	8000d9a <__udivsi3+0x52>
 8000d96:	038b      	lsls	r3, r1, #14
 8000d98:	1ac0      	subs	r0, r0, r3
 8000d9a:	4152      	adcs	r2, r2
 8000d9c:	0b43      	lsrs	r3, r0, #13
 8000d9e:	428b      	cmp	r3, r1
 8000da0:	d301      	bcc.n	8000da6 <__udivsi3+0x5e>
 8000da2:	034b      	lsls	r3, r1, #13
 8000da4:	1ac0      	subs	r0, r0, r3
 8000da6:	4152      	adcs	r2, r2
 8000da8:	0b03      	lsrs	r3, r0, #12
 8000daa:	428b      	cmp	r3, r1
 8000dac:	d301      	bcc.n	8000db2 <__udivsi3+0x6a>
 8000dae:	030b      	lsls	r3, r1, #12
 8000db0:	1ac0      	subs	r0, r0, r3
 8000db2:	4152      	adcs	r2, r2
 8000db4:	0ac3      	lsrs	r3, r0, #11
 8000db6:	428b      	cmp	r3, r1
 8000db8:	d301      	bcc.n	8000dbe <__udivsi3+0x76>
 8000dba:	02cb      	lsls	r3, r1, #11
 8000dbc:	1ac0      	subs	r0, r0, r3
 8000dbe:	4152      	adcs	r2, r2
 8000dc0:	0a83      	lsrs	r3, r0, #10
 8000dc2:	428b      	cmp	r3, r1
 8000dc4:	d301      	bcc.n	8000dca <__udivsi3+0x82>
 8000dc6:	028b      	lsls	r3, r1, #10
 8000dc8:	1ac0      	subs	r0, r0, r3
 8000dca:	4152      	adcs	r2, r2
 8000dcc:	0a43      	lsrs	r3, r0, #9
 8000dce:	428b      	cmp	r3, r1
 8000dd0:	d301      	bcc.n	8000dd6 <__udivsi3+0x8e>
 8000dd2:	024b      	lsls	r3, r1, #9
 8000dd4:	1ac0      	subs	r0, r0, r3
 8000dd6:	4152      	adcs	r2, r2
 8000dd8:	0a03      	lsrs	r3, r0, #8
 8000dda:	428b      	cmp	r3, r1
 8000ddc:	d301      	bcc.n	8000de2 <__udivsi3+0x9a>
 8000dde:	020b      	lsls	r3, r1, #8
 8000de0:	1ac0      	subs	r0, r0, r3
 8000de2:	4152      	adcs	r2, r2
 8000de4:	d2cd      	bcs.n	8000d82 <__udivsi3+0x3a>
 8000de6:	09c3      	lsrs	r3, r0, #7
 8000de8:	428b      	cmp	r3, r1
 8000dea:	d301      	bcc.n	8000df0 <__udivsi3+0xa8>
 8000dec:	01cb      	lsls	r3, r1, #7
 8000dee:	1ac0      	subs	r0, r0, r3
 8000df0:	4152      	adcs	r2, r2
 8000df2:	0983      	lsrs	r3, r0, #6
 8000df4:	428b      	cmp	r3, r1
 8000df6:	d301      	bcc.n	8000dfc <__udivsi3+0xb4>
 8000df8:	018b      	lsls	r3, r1, #6
 8000dfa:	1ac0      	subs	r0, r0, r3
 8000dfc:	4152      	adcs	r2, r2
 8000dfe:	0943      	lsrs	r3, r0, #5
 8000e00:	428b      	cmp	r3, r1
 8000e02:	d301      	bcc.n	8000e08 <__udivsi3+0xc0>
 8000e04:	014b      	lsls	r3, r1, #5
 8000e06:	1ac0      	subs	r0, r0, r3
 8000e08:	4152      	adcs	r2, r2
 8000e0a:	0903      	lsrs	r3, r0, #4
 8000e0c:	428b      	cmp	r3, r1
 8000e0e:	d301      	bcc.n	8000e14 <__udivsi3+0xcc>
 8000e10:	010b      	lsls	r3, r1, #4
 8000e12:	1ac0      	subs	r0, r0, r3
 8000e14:	4152      	adcs	r2, r2
 8000e16:	08c3      	lsrs	r3, r0, #3
 8000e18:	428b      	cmp	r3, r1
 8000e1a:	d301      	bcc.n	8000e20 <__udivsi3+0xd8>
 8000e1c:	00cb      	lsls	r3, r1, #3
 8000e1e:	1ac0      	subs	r0, r0, r3
 8000e20:	4152      	adcs	r2, r2
 8000e22:	0883      	lsrs	r3, r0, #2
 8000e24:	428b      	cmp	r3, r1
 8000e26:	d301      	bcc.n	8000e2c <__udivsi3+0xe4>
 8000e28:	008b      	lsls	r3, r1, #2
 8000e2a:	1ac0      	subs	r0, r0, r3
 8000e2c:	4152      	adcs	r2, r2
 8000e2e:	0843      	lsrs	r3, r0, #1
 8000e30:	428b      	cmp	r3, r1
 8000e32:	d301      	bcc.n	8000e38 <__udivsi3+0xf0>
 8000e34:	004b      	lsls	r3, r1, #1
 8000e36:	1ac0      	subs	r0, r0, r3
 8000e38:	4152      	adcs	r2, r2
 8000e3a:	1a41      	subs	r1, r0, r1
 8000e3c:	d200      	bcs.n	8000e40 <__udivsi3+0xf8>
 8000e3e:	4601      	mov	r1, r0
 8000e40:	4152      	adcs	r2, r2
 8000e42:	4610      	mov	r0, r2
 8000e44:	4770      	bx	lr
 8000e46:	e7ff      	b.n	8000e48 <__udivsi3+0x100>
 8000e48:	b501      	push	{r0, lr}
 8000e4a:	2000      	movs	r0, #0
 8000e4c:	f000 f806 	bl	8000e5c <__aeabi_idiv0>
 8000e50:	bd02      	pop	{r1, pc}
 8000e52:	46c0      	nop			@ (mov r8, r8)

08000e54 <__aeabi_uidivmod>:
 8000e54:	2900      	cmp	r1, #0
 8000e56:	d0f7      	beq.n	8000e48 <__udivsi3+0x100>
 8000e58:	e776      	b.n	8000d48 <__udivsi3>
 8000e5a:	4770      	bx	lr

08000e5c <__aeabi_idiv0>:
 8000e5c:	4770      	bx	lr
 8000e5e:	46c0      	nop			@ (mov r8, r8)

08000e60 <__aeabi_fadd>:
 8000e60:	b5f0      	push	{r4, r5, r6, r7, lr}
 8000e62:	46c6      	mov	lr, r8
 8000e64:	0243      	lsls	r3, r0, #9
 8000e66:	0a5b      	lsrs	r3, r3, #9
 8000e68:	469c      	mov	ip, r3
 8000e6a:	001f      	movs	r7, r3
 8000e6c:	00de      	lsls	r6, r3, #3
 8000e6e:	024b      	lsls	r3, r1, #9
 8000e70:	0a5a      	lsrs	r2, r3, #9
 8000e72:	0045      	lsls	r5, r0, #1
 8000e74:	4690      	mov	r8, r2
 8000e76:	004a      	lsls	r2, r1, #1
 8000e78:	0e2d      	lsrs	r5, r5, #24
 8000e7a:	0e12      	lsrs	r2, r2, #24
 8000e7c:	0fc4      	lsrs	r4, r0, #31
 8000e7e:	b500      	push	{lr}
 8000e80:	0fc9      	lsrs	r1, r1, #31
 8000e82:	099b      	lsrs	r3, r3, #6
 8000e84:	1aa8      	subs	r0, r5, r2
 8000e86:	428c      	cmp	r4, r1
 8000e88:	d021      	beq.n	8000ece <__aeabi_fadd+0x6e>
 8000e8a:	2800      	cmp	r0, #0
 8000e8c:	dd0d      	ble.n	8000eaa <__aeabi_fadd+0x4a>
 8000e8e:	2a00      	cmp	r2, #0
 8000e90:	d12d      	bne.n	8000eee <__aeabi_fadd+0x8e>
 8000e92:	2b00      	cmp	r3, #0
 8000e94:	d100      	bne.n	8000e98 <__aeabi_fadd+0x38>
 8000e96:	e095      	b.n	8000fc4 <__aeabi_fadd+0x164>
 8000e98:	1e42      	subs	r2, r0, #1
 8000e9a:	2801      	cmp	r0, #1
 8000e9c:	d100      	bne.n	8000ea0 <__aeabi_fadd+0x40>
 8000e9e:	e131      	b.n	8001104 <__aeabi_fadd+0x2a4>
 8000ea0:	28ff      	cmp	r0, #255	@ 0xff
 8000ea2:	d100      	bne.n	8000ea6 <__aeabi_fadd+0x46>
 8000ea4:	e094      	b.n	8000fd0 <__aeabi_fadd+0x170>
 8000ea6:	0010      	movs	r0, r2
 8000ea8:	e027      	b.n	8000efa <__aeabi_fadd+0x9a>
 8000eaa:	2800      	cmp	r0, #0
 8000eac:	d062      	beq.n	8000f74 <__aeabi_fadd+0x114>
 8000eae:	1b50      	subs	r0, r2, r5
 8000eb0:	2d00      	cmp	r5, #0
 8000eb2:	d000      	beq.n	8000eb6 <__aeabi_fadd+0x56>
 8000eb4:	e0e1      	b.n	800107a <__aeabi_fadd+0x21a>
 8000eb6:	2e00      	cmp	r6, #0
 8000eb8:	d100      	bne.n	8000ebc <__aeabi_fadd+0x5c>
 8000eba:	e081      	b.n	8000fc0 <__aeabi_fadd+0x160>
 8000ebc:	1e44      	subs	r4, r0, #1
 8000ebe:	2801      	cmp	r0, #1
 8000ec0:	d100      	bne.n	8000ec4 <__aeabi_fadd+0x64>
 8000ec2:	e142      	b.n	800114a <__aeabi_fadd+0x2ea>
 8000ec4:	28ff      	cmp	r0, #255	@ 0xff
 8000ec6:	d100      	bne.n	8000eca <__aeabi_fadd+0x6a>
 8000ec8:	e119      	b.n	80010fe <__aeabi_fadd+0x29e>
 8000eca:	0020      	movs	r0, r4
 8000ecc:	e0da      	b.n	8001084 <__aeabi_fadd+0x224>
 8000ece:	2800      	cmp	r0, #0
 8000ed0:	dc00      	bgt.n	8000ed4 <__aeabi_fadd+0x74>
 8000ed2:	e09c      	b.n	800100e <__aeabi_fadd+0x1ae>
 8000ed4:	2a00      	cmp	r2, #0
 8000ed6:	d069      	beq.n	8000fac <__aeabi_fadd+0x14c>
 8000ed8:	2dff      	cmp	r5, #255	@ 0xff
 8000eda:	d100      	bne.n	8000ede <__aeabi_fadd+0x7e>
 8000edc:	e078      	b.n	8000fd0 <__aeabi_fadd+0x170>
 8000ede:	2280      	movs	r2, #128	@ 0x80
 8000ee0:	04d2      	lsls	r2, r2, #19
 8000ee2:	4313      	orrs	r3, r2
 8000ee4:	281b      	cmp	r0, #27
 8000ee6:	dc00      	bgt.n	8000eea <__aeabi_fadd+0x8a>
 8000ee8:	e07d      	b.n	8000fe6 <__aeabi_fadd+0x186>
 8000eea:	3601      	adds	r6, #1
 8000eec:	e02a      	b.n	8000f44 <__aeabi_fadd+0xe4>
 8000eee:	2dff      	cmp	r5, #255	@ 0xff
 8000ef0:	d100      	bne.n	8000ef4 <__aeabi_fadd+0x94>
 8000ef2:	e06d      	b.n	8000fd0 <__aeabi_fadd+0x170>
 8000ef4:	2280      	movs	r2, #128	@ 0x80
 8000ef6:	04d2      	lsls	r2, r2, #19
 8000ef8:	4313      	orrs	r3, r2
 8000efa:	2201      	movs	r2, #1
 8000efc:	281b      	cmp	r0, #27
 8000efe:	dc07      	bgt.n	8000f10 <__aeabi_fadd+0xb0>
 8000f00:	2120      	movs	r1, #32
 8000f02:	1a09      	subs	r1, r1, r0
 8000f04:	001a      	movs	r2, r3
 8000f06:	408b      	lsls	r3, r1
 8000f08:	40c2      	lsrs	r2, r0
 8000f0a:	1e59      	subs	r1, r3, #1
 8000f0c:	418b      	sbcs	r3, r1
 8000f0e:	431a      	orrs	r2, r3
 8000f10:	1ab6      	subs	r6, r6, r2
 8000f12:	0173      	lsls	r3, r6, #5
 8000f14:	d400      	bmi.n	8000f18 <__aeabi_fadd+0xb8>
 8000f16:	e077      	b.n	8001008 <__aeabi_fadd+0x1a8>
 8000f18:	01b6      	lsls	r6, r6, #6
 8000f1a:	09b7      	lsrs	r7, r6, #6
 8000f1c:	0038      	movs	r0, r7
 8000f1e:	f000 ff75 	bl	8001e0c <__clzsi2>
 8000f22:	3805      	subs	r0, #5
 8000f24:	4087      	lsls	r7, r0
 8000f26:	4285      	cmp	r5, r0
 8000f28:	dd00      	ble.n	8000f2c <__aeabi_fadd+0xcc>
 8000f2a:	e082      	b.n	8001032 <__aeabi_fadd+0x1d2>
 8000f2c:	2220      	movs	r2, #32
 8000f2e:	003b      	movs	r3, r7
 8000f30:	1b40      	subs	r0, r0, r5
 8000f32:	3001      	adds	r0, #1
 8000f34:	1a12      	subs	r2, r2, r0
 8000f36:	003e      	movs	r6, r7
 8000f38:	4093      	lsls	r3, r2
 8000f3a:	40c6      	lsrs	r6, r0
 8000f3c:	1e5a      	subs	r2, r3, #1
 8000f3e:	4193      	sbcs	r3, r2
 8000f40:	2500      	movs	r5, #0
 8000f42:	431e      	orrs	r6, r3
 8000f44:	0773      	lsls	r3, r6, #29
 8000f46:	d004      	beq.n	8000f52 <__aeabi_fadd+0xf2>
 8000f48:	230f      	movs	r3, #15
 8000f4a:	4033      	ands	r3, r6
 8000f4c:	2b04      	cmp	r3, #4
 8000f4e:	d000      	beq.n	8000f52 <__aeabi_fadd+0xf2>
 8000f50:	3604      	adds	r6, #4
 8000f52:	0173      	lsls	r3, r6, #5
 8000f54:	d537      	bpl.n	8000fc6 <__aeabi_fadd+0x166>
 8000f56:	1c68      	adds	r0, r5, #1
 8000f58:	2dfe      	cmp	r5, #254	@ 0xfe
 8000f5a:	d052      	beq.n	8001002 <__aeabi_fadd+0x1a2>
 8000f5c:	4b8e      	ldr	r3, [pc, #568]	@ (8001198 <__aeabi_fadd+0x338>)
 8000f5e:	b2c0      	uxtb	r0, r0
 8000f60:	4033      	ands	r3, r6
 8000f62:	019b      	lsls	r3, r3, #6
 8000f64:	0a5f      	lsrs	r7, r3, #9
 8000f66:	05c0      	lsls	r0, r0, #23
 8000f68:	4338      	orrs	r0, r7
 8000f6a:	07e4      	lsls	r4, r4, #31
 8000f6c:	4320      	orrs	r0, r4
 8000f6e:	bc80      	pop	{r7}
 8000f70:	46b8      	mov	r8, r7
 8000f72:	bdf0      	pop	{r4, r5, r6, r7, pc}
 8000f74:	20fe      	movs	r0, #254	@ 0xfe
 8000f76:	1c6a      	adds	r2, r5, #1
 8000f78:	4210      	tst	r0, r2
 8000f7a:	d174      	bne.n	8001066 <__aeabi_fadd+0x206>
 8000f7c:	2d00      	cmp	r5, #0
 8000f7e:	d000      	beq.n	8000f82 <__aeabi_fadd+0x122>
 8000f80:	e0aa      	b.n	80010d8 <__aeabi_fadd+0x278>
 8000f82:	2e00      	cmp	r6, #0
 8000f84:	d100      	bne.n	8000f88 <__aeabi_fadd+0x128>
 8000f86:	e0da      	b.n	800113e <__aeabi_fadd+0x2de>
 8000f88:	2000      	movs	r0, #0
 8000f8a:	2b00      	cmp	r3, #0
 8000f8c:	d0eb      	beq.n	8000f66 <__aeabi_fadd+0x106>
 8000f8e:	2280      	movs	r2, #128	@ 0x80
 8000f90:	1af7      	subs	r7, r6, r3
 8000f92:	04d2      	lsls	r2, r2, #19
 8000f94:	4217      	tst	r7, r2
 8000f96:	d100      	bne.n	8000f9a <__aeabi_fadd+0x13a>
 8000f98:	e0ec      	b.n	8001174 <__aeabi_fadd+0x314>
 8000f9a:	1b9b      	subs	r3, r3, r6
 8000f9c:	4213      	tst	r3, r2
 8000f9e:	d100      	bne.n	8000fa2 <__aeabi_fadd+0x142>
 8000fa0:	e0f2      	b.n	8001188 <__aeabi_fadd+0x328>
 8000fa2:	4a7d      	ldr	r2, [pc, #500]	@ (8001198 <__aeabi_fadd+0x338>)
 8000fa4:	000c      	movs	r4, r1
 8000fa6:	4013      	ands	r3, r2
 8000fa8:	3001      	adds	r0, #1
 8000faa:	e7da      	b.n	8000f62 <__aeabi_fadd+0x102>
 8000fac:	2b00      	cmp	r3, #0
 8000fae:	d009      	beq.n	8000fc4 <__aeabi_fadd+0x164>
 8000fb0:	1e42      	subs	r2, r0, #1
 8000fb2:	2801      	cmp	r0, #1
 8000fb4:	d100      	bne.n	8000fb8 <__aeabi_fadd+0x158>
 8000fb6:	e096      	b.n	80010e6 <__aeabi_fadd+0x286>
 8000fb8:	28ff      	cmp	r0, #255	@ 0xff
 8000fba:	d009      	beq.n	8000fd0 <__aeabi_fadd+0x170>
 8000fbc:	0010      	movs	r0, r2
 8000fbe:	e791      	b.n	8000ee4 <__aeabi_fadd+0x84>
 8000fc0:	000c      	movs	r4, r1
 8000fc2:	001e      	movs	r6, r3
 8000fc4:	0005      	movs	r5, r0
 8000fc6:	08f3      	lsrs	r3, r6, #3
 8000fc8:	469c      	mov	ip, r3
 8000fca:	2dff      	cmp	r5, #255	@ 0xff
 8000fcc:	d000      	beq.n	8000fd0 <__aeabi_fadd+0x170>
 8000fce:	e091      	b.n	80010f4 <__aeabi_fadd+0x294>
 8000fd0:	4663      	mov	r3, ip
 8000fd2:	2b00      	cmp	r3, #0
 8000fd4:	d015      	beq.n	8001002 <__aeabi_fadd+0x1a2>
 8000fd6:	2780      	movs	r7, #128	@ 0x80
 8000fd8:	4663      	mov	r3, ip
 8000fda:	03ff      	lsls	r7, r7, #15
 8000fdc:	431f      	orrs	r7, r3
 8000fde:	027f      	lsls	r7, r7, #9
 8000fe0:	20ff      	movs	r0, #255	@ 0xff
 8000fe2:	0a7f      	lsrs	r7, r7, #9
 8000fe4:	e7bf      	b.n	8000f66 <__aeabi_fadd+0x106>
 8000fe6:	2120      	movs	r1, #32
 8000fe8:	1a09      	subs	r1, r1, r0
 8000fea:	001a      	movs	r2, r3
 8000fec:	408b      	lsls	r3, r1
 8000fee:	40c2      	lsrs	r2, r0
 8000ff0:	1e59      	subs	r1, r3, #1
 8000ff2:	418b      	sbcs	r3, r1
 8000ff4:	4313      	orrs	r3, r2
 8000ff6:	18f6      	adds	r6, r6, r3
 8000ff8:	0173      	lsls	r3, r6, #5
 8000ffa:	d505      	bpl.n	8001008 <__aeabi_fadd+0x1a8>
 8000ffc:	3501      	adds	r5, #1
 8000ffe:	2dff      	cmp	r5, #255	@ 0xff
 8001000:	d154      	bne.n	80010ac <__aeabi_fadd+0x24c>
 8001002:	20ff      	movs	r0, #255	@ 0xff
 8001004:	2700      	movs	r7, #0
 8001006:	e7ae      	b.n	8000f66 <__aeabi_fadd+0x106>
 8001008:	0773      	lsls	r3, r6, #29
 800100a:	d19d      	bne.n	8000f48 <__aeabi_fadd+0xe8>
 800100c:	e7db      	b.n	8000fc6 <__aeabi_fadd+0x166>
 800100e:	2800      	cmp	r0, #0
 8001010:	d013      	beq.n	800103a <__aeabi_fadd+0x1da>
 8001012:	1b50      	subs	r0, r2, r5
 8001014:	2d00      	cmp	r5, #0
 8001016:	d150      	bne.n	80010ba <__aeabi_fadd+0x25a>
 8001018:	2e00      	cmp	r6, #0
 800101a:	d0d2      	beq.n	8000fc2 <__aeabi_fadd+0x162>
 800101c:	1e41      	subs	r1, r0, #1
 800101e:	2801      	cmp	r0, #1
 8001020:	d040      	beq.n	80010a4 <__aeabi_fadd+0x244>
 8001022:	28ff      	cmp	r0, #255	@ 0xff
 8001024:	d06c      	beq.n	8001100 <__aeabi_fadd+0x2a0>
 8001026:	0008      	movs	r0, r1
 8001028:	281b      	cmp	r0, #27
 800102a:	dd6e      	ble.n	800110a <__aeabi_fadd+0x2aa>
 800102c:	0015      	movs	r5, r2
 800102e:	1c5e      	adds	r6, r3, #1
 8001030:	e788      	b.n	8000f44 <__aeabi_fadd+0xe4>
 8001032:	4e59      	ldr	r6, [pc, #356]	@ (8001198 <__aeabi_fadd+0x338>)
 8001034:	1a2d      	subs	r5, r5, r0
 8001036:	403e      	ands	r6, r7
 8001038:	e784      	b.n	8000f44 <__aeabi_fadd+0xe4>
 800103a:	21fe      	movs	r1, #254	@ 0xfe
 800103c:	1c6a      	adds	r2, r5, #1
 800103e:	4211      	tst	r1, r2
 8001040:	d141      	bne.n	80010c6 <__aeabi_fadd+0x266>
 8001042:	2d00      	cmp	r5, #0
 8001044:	d16c      	bne.n	8001120 <__aeabi_fadd+0x2c0>
 8001046:	2e00      	cmp	r6, #0
 8001048:	d100      	bne.n	800104c <__aeabi_fadd+0x1ec>
 800104a:	e090      	b.n	800116e <__aeabi_fadd+0x30e>
 800104c:	2000      	movs	r0, #0
 800104e:	2b00      	cmp	r3, #0
 8001050:	d100      	bne.n	8001054 <__aeabi_fadd+0x1f4>
 8001052:	e788      	b.n	8000f66 <__aeabi_fadd+0x106>
 8001054:	18f3      	adds	r3, r6, r3
 8001056:	08df      	lsrs	r7, r3, #3
 8001058:	027f      	lsls	r7, r7, #9
 800105a:	0a7f      	lsrs	r7, r7, #9
 800105c:	015b      	lsls	r3, r3, #5
 800105e:	d400      	bmi.n	8001062 <__aeabi_fadd+0x202>
 8001060:	e781      	b.n	8000f66 <__aeabi_fadd+0x106>
 8001062:	2001      	movs	r0, #1
 8001064:	e77f      	b.n	8000f66 <__aeabi_fadd+0x106>
 8001066:	1af7      	subs	r7, r6, r3
 8001068:	017a      	lsls	r2, r7, #5
 800106a:	d432      	bmi.n	80010d2 <__aeabi_fadd+0x272>
 800106c:	2f00      	cmp	r7, #0
 800106e:	d000      	beq.n	8001072 <__aeabi_fadd+0x212>
 8001070:	e754      	b.n	8000f1c <__aeabi_fadd+0xbc>
 8001072:	2400      	movs	r4, #0
 8001074:	2000      	movs	r0, #0
 8001076:	2700      	movs	r7, #0
 8001078:	e775      	b.n	8000f66 <__aeabi_fadd+0x106>
 800107a:	2aff      	cmp	r2, #255	@ 0xff
 800107c:	d03f      	beq.n	80010fe <__aeabi_fadd+0x29e>
 800107e:	2480      	movs	r4, #128	@ 0x80
 8001080:	04e4      	lsls	r4, r4, #19
 8001082:	4326      	orrs	r6, r4
 8001084:	2401      	movs	r4, #1
 8001086:	281b      	cmp	r0, #27
 8001088:	dc08      	bgt.n	800109c <__aeabi_fadd+0x23c>
 800108a:	0035      	movs	r5, r6
 800108c:	341f      	adds	r4, #31
 800108e:	1a24      	subs	r4, r4, r0
 8001090:	40a6      	lsls	r6, r4
 8001092:	40c5      	lsrs	r5, r0
 8001094:	1e74      	subs	r4, r6, #1
 8001096:	41a6      	sbcs	r6, r4
 8001098:	002c      	movs	r4, r5
 800109a:	4334      	orrs	r4, r6
 800109c:	1b1e      	subs	r6, r3, r4
 800109e:	0015      	movs	r5, r2
 80010a0:	000c      	movs	r4, r1
 80010a2:	e736      	b.n	8000f12 <__aeabi_fadd+0xb2>
 80010a4:	18f6      	adds	r6, r6, r3
 80010a6:	3502      	adds	r5, #2
 80010a8:	0173      	lsls	r3, r6, #5
 80010aa:	d520      	bpl.n	80010ee <__aeabi_fadd+0x28e>
 80010ac:	2301      	movs	r3, #1
 80010ae:	4a3b      	ldr	r2, [pc, #236]	@ (800119c <__aeabi_fadd+0x33c>)
 80010b0:	4033      	ands	r3, r6
 80010b2:	0876      	lsrs	r6, r6, #1
 80010b4:	4016      	ands	r6, r2
 80010b6:	431e      	orrs	r6, r3
 80010b8:	e744      	b.n	8000f44 <__aeabi_fadd+0xe4>
 80010ba:	2aff      	cmp	r2, #255	@ 0xff
 80010bc:	d020      	beq.n	8001100 <__aeabi_fadd+0x2a0>
 80010be:	2180      	movs	r1, #128	@ 0x80
 80010c0:	04c9      	lsls	r1, r1, #19
 80010c2:	430e      	orrs	r6, r1
 80010c4:	e7b0      	b.n	8001028 <__aeabi_fadd+0x1c8>
 80010c6:	2aff      	cmp	r2, #255	@ 0xff
 80010c8:	d09b      	beq.n	8001002 <__aeabi_fadd+0x1a2>
 80010ca:	18f6      	adds	r6, r6, r3
 80010cc:	0015      	movs	r5, r2
 80010ce:	0876      	lsrs	r6, r6, #1
 80010d0:	e738      	b.n	8000f44 <__aeabi_fadd+0xe4>
 80010d2:	000c      	movs	r4, r1
 80010d4:	1b9f      	subs	r7, r3, r6
 80010d6:	e721      	b.n	8000f1c <__aeabi_fadd+0xbc>
 80010d8:	2e00      	cmp	r6, #0
 80010da:	d13a      	bne.n	8001152 <__aeabi_fadd+0x2f2>
 80010dc:	2b00      	cmp	r3, #0
 80010de:	d04e      	beq.n	800117e <__aeabi_fadd+0x31e>
 80010e0:	46c4      	mov	ip, r8
 80010e2:	000c      	movs	r4, r1
 80010e4:	e777      	b.n	8000fd6 <__aeabi_fadd+0x176>
 80010e6:	18f6      	adds	r6, r6, r3
 80010e8:	2502      	movs	r5, #2
 80010ea:	0173      	lsls	r3, r6, #5
 80010ec:	d4de      	bmi.n	80010ac <__aeabi_fadd+0x24c>
 80010ee:	08f3      	lsrs	r3, r6, #3
 80010f0:	469c      	mov	ip, r3
 80010f2:	2501      	movs	r5, #1
 80010f4:	4663      	mov	r3, ip
 80010f6:	025f      	lsls	r7, r3, #9
 80010f8:	0a7f      	lsrs	r7, r7, #9
 80010fa:	b2e8      	uxtb	r0, r5
 80010fc:	e733      	b.n	8000f66 <__aeabi_fadd+0x106>
 80010fe:	000c      	movs	r4, r1
 8001100:	46c4      	mov	ip, r8
 8001102:	e765      	b.n	8000fd0 <__aeabi_fadd+0x170>
 8001104:	2501      	movs	r5, #1
 8001106:	1af6      	subs	r6, r6, r3
 8001108:	e703      	b.n	8000f12 <__aeabi_fadd+0xb2>
 800110a:	0031      	movs	r1, r6
 800110c:	2520      	movs	r5, #32
 800110e:	40c1      	lsrs	r1, r0
 8001110:	1a28      	subs	r0, r5, r0
 8001112:	4086      	lsls	r6, r0
 8001114:	1e70      	subs	r0, r6, #1
 8001116:	4186      	sbcs	r6, r0
 8001118:	430e      	orrs	r6, r1
 800111a:	0015      	movs	r5, r2
 800111c:	18f6      	adds	r6, r6, r3
 800111e:	e76b      	b.n	8000ff8 <__aeabi_fadd+0x198>
 8001120:	2e00      	cmp	r6, #0
 8001122:	d0ed      	beq.n	8001100 <__aeabi_fadd+0x2a0>
 8001124:	2b00      	cmp	r3, #0
 8001126:	d100      	bne.n	800112a <__aeabi_fadd+0x2ca>
 8001128:	e755      	b.n	8000fd6 <__aeabi_fadd+0x176>
 800112a:	2380      	movs	r3, #128	@ 0x80
 800112c:	03db      	lsls	r3, r3, #15
 800112e:	459c      	cmp	ip, r3
 8001130:	d200      	bcs.n	8001134 <__aeabi_fadd+0x2d4>
 8001132:	e750      	b.n	8000fd6 <__aeabi_fadd+0x176>
 8001134:	4598      	cmp	r8, r3
 8001136:	d300      	bcc.n	800113a <__aeabi_fadd+0x2da>
 8001138:	e74d      	b.n	8000fd6 <__aeabi_fadd+0x176>
 800113a:	46c4      	mov	ip, r8
 800113c:	e74b      	b.n	8000fd6 <__aeabi_fadd+0x176>
 800113e:	2b00      	cmp	r3, #0
 8001140:	d097      	beq.n	8001072 <__aeabi_fadd+0x212>
 8001142:	000c      	movs	r4, r1
 8001144:	4647      	mov	r7, r8
 8001146:	2000      	movs	r0, #0
 8001148:	e70d      	b.n	8000f66 <__aeabi_fadd+0x106>
 800114a:	000c      	movs	r4, r1
 800114c:	1b9e      	subs	r6, r3, r6
 800114e:	3501      	adds	r5, #1
 8001150:	e6df      	b.n	8000f12 <__aeabi_fadd+0xb2>
 8001152:	2b00      	cmp	r3, #0
 8001154:	d100      	bne.n	8001158 <__aeabi_fadd+0x2f8>
 8001156:	e73e      	b.n	8000fd6 <__aeabi_fadd+0x176>
 8001158:	2380      	movs	r3, #128	@ 0x80
 800115a:	03db      	lsls	r3, r3, #15
 800115c:	459c      	cmp	ip, r3
 800115e:	d200      	bcs.n	8001162 <__aeabi_fadd+0x302>
 8001160:	e739      	b.n	8000fd6 <__aeabi_fadd+0x176>
 8001162:	4598      	cmp	r8, r3
 8001164:	d300      	bcc.n	8001168 <__aeabi_fadd+0x308>
 8001166:	e736      	b.n	8000fd6 <__aeabi_fadd+0x176>
 8001168:	000c      	movs	r4, r1
 800116a:	46c4      	mov	ip, r8
 800116c:	e733      	b.n	8000fd6 <__aeabi_fadd+0x176>
 800116e:	4647      	mov	r7, r8
 8001170:	2000      	movs	r0, #0
 8001172:	e6f8      	b.n	8000f66 <__aeabi_fadd+0x106>
 8001174:	2f00      	cmp	r7, #0
 8001176:	d00b      	beq.n	8001190 <__aeabi_fadd+0x330>
 8001178:	01bf      	lsls	r7, r7, #6
 800117a:	0a7f      	lsrs	r7, r7, #9
 800117c:	e6f3      	b.n	8000f66 <__aeabi_fadd+0x106>
 800117e:	2780      	movs	r7, #128	@ 0x80
 8001180:	2400      	movs	r4, #0
 8001182:	20ff      	movs	r0, #255	@ 0xff
 8001184:	03ff      	lsls	r7, r7, #15
 8001186:	e6ee      	b.n	8000f66 <__aeabi_fadd+0x106>
 8001188:	019b      	lsls	r3, r3, #6
 800118a:	000c      	movs	r4, r1
 800118c:	0a5f      	lsrs	r7, r3, #9
 800118e:	e6ea      	b.n	8000f66 <__aeabi_fadd+0x106>
 8001190:	2400      	movs	r4, #0
 8001192:	2700      	movs	r7, #0
 8001194:	e6e7      	b.n	8000f66 <__aeabi_fadd+0x106>
 8001196:	46c0      	nop			@ (mov r8, r8)
 8001198:	fbffffff 	.word	0xfbffffff
 800119c:	7dffffff 	.word	0x7dffffff

080011a0 <__aeabi_fdiv>:
 80011a0:	b5f0      	push	{r4, r5, r6, r7, lr}
 80011a2:	4646      	mov	r6, r8
 80011a4:	464f      	mov	r7, r9
 80011a6:	46d6      	mov	lr, sl
 80011a8:	0245      	lsls	r5, r0, #9
 80011aa:	b5c0      	push	{r6, r7, lr}
 80011ac:	0fc3      	lsrs	r3, r0, #31
 80011ae:	0047      	lsls	r7, r0, #1
 80011b0:	4698      	mov	r8, r3
 80011b2:	1c0e      	adds	r6, r1, #0
 80011b4:	0a6d      	lsrs	r5, r5, #9
 80011b6:	0e3f      	lsrs	r7, r7, #24
 80011b8:	d057      	beq.n	800126a <__aeabi_fdiv+0xca>
 80011ba:	2fff      	cmp	r7, #255	@ 0xff
 80011bc:	d021      	beq.n	8001202 <__aeabi_fdiv+0x62>
 80011be:	2380      	movs	r3, #128	@ 0x80
 80011c0:	00ed      	lsls	r5, r5, #3
 80011c2:	04db      	lsls	r3, r3, #19
 80011c4:	431d      	orrs	r5, r3
 80011c6:	2300      	movs	r3, #0
 80011c8:	4699      	mov	r9, r3
 80011ca:	469a      	mov	sl, r3
 80011cc:	3f7f      	subs	r7, #127	@ 0x7f
 80011ce:	0274      	lsls	r4, r6, #9
 80011d0:	0073      	lsls	r3, r6, #1
 80011d2:	0a64      	lsrs	r4, r4, #9
 80011d4:	0e1b      	lsrs	r3, r3, #24
 80011d6:	0ff6      	lsrs	r6, r6, #31
 80011d8:	2b00      	cmp	r3, #0
 80011da:	d020      	beq.n	800121e <__aeabi_fdiv+0x7e>
 80011dc:	2bff      	cmp	r3, #255	@ 0xff
 80011de:	d04c      	beq.n	800127a <__aeabi_fdiv+0xda>
 80011e0:	2280      	movs	r2, #128	@ 0x80
 80011e2:	2000      	movs	r0, #0
 80011e4:	00e4      	lsls	r4, r4, #3
 80011e6:	04d2      	lsls	r2, r2, #19
 80011e8:	4314      	orrs	r4, r2
 80011ea:	3b7f      	subs	r3, #127	@ 0x7f
 80011ec:	4642      	mov	r2, r8
 80011ee:	1aff      	subs	r7, r7, r3
 80011f0:	464b      	mov	r3, r9
 80011f2:	4072      	eors	r2, r6
 80011f4:	2b0f      	cmp	r3, #15
 80011f6:	d900      	bls.n	80011fa <__aeabi_fdiv+0x5a>
 80011f8:	e0ac      	b.n	8001354 <__aeabi_fdiv+0x1b4>
 80011fa:	496f      	ldr	r1, [pc, #444]	@ (80013b8 <__aeabi_fdiv+0x218>)
 80011fc:	009b      	lsls	r3, r3, #2
 80011fe:	58cb      	ldr	r3, [r1, r3]
 8001200:	469f      	mov	pc, r3
 8001202:	2d00      	cmp	r5, #0
 8001204:	d15b      	bne.n	80012be <__aeabi_fdiv+0x11e>
 8001206:	2308      	movs	r3, #8
 8001208:	4699      	mov	r9, r3
 800120a:	3b06      	subs	r3, #6
 800120c:	0274      	lsls	r4, r6, #9
 800120e:	469a      	mov	sl, r3
 8001210:	0073      	lsls	r3, r6, #1
 8001212:	27ff      	movs	r7, #255	@ 0xff
 8001214:	0a64      	lsrs	r4, r4, #9
 8001216:	0e1b      	lsrs	r3, r3, #24
 8001218:	0ff6      	lsrs	r6, r6, #31
 800121a:	2b00      	cmp	r3, #0
 800121c:	d1de      	bne.n	80011dc <__aeabi_fdiv+0x3c>
 800121e:	2c00      	cmp	r4, #0
 8001220:	d130      	bne.n	8001284 <__aeabi_fdiv+0xe4>
 8001222:	2301      	movs	r3, #1
 8001224:	4642      	mov	r2, r8
 8001226:	4649      	mov	r1, r9
 8001228:	4072      	eors	r2, r6
 800122a:	4319      	orrs	r1, r3
 800122c:	290e      	cmp	r1, #14
 800122e:	d804      	bhi.n	800123a <__aeabi_fdiv+0x9a>
 8001230:	4862      	ldr	r0, [pc, #392]	@ (80013bc <__aeabi_fdiv+0x21c>)
 8001232:	0089      	lsls	r1, r1, #2
 8001234:	5841      	ldr	r1, [r0, r1]
 8001236:	468f      	mov	pc, r1
 8001238:	4642      	mov	r2, r8
 800123a:	20ff      	movs	r0, #255	@ 0xff
 800123c:	2400      	movs	r4, #0
 800123e:	05c0      	lsls	r0, r0, #23
 8001240:	4320      	orrs	r0, r4
 8001242:	07d2      	lsls	r2, r2, #31
 8001244:	4310      	orrs	r0, r2
 8001246:	bce0      	pop	{r5, r6, r7}
 8001248:	46ba      	mov	sl, r7
 800124a:	46b1      	mov	r9, r6
 800124c:	46a8      	mov	r8, r5
 800124e:	bdf0      	pop	{r4, r5, r6, r7, pc}
 8001250:	4653      	mov	r3, sl
 8001252:	2b02      	cmp	r3, #2
 8001254:	d0f0      	beq.n	8001238 <__aeabi_fdiv+0x98>
 8001256:	2b03      	cmp	r3, #3
 8001258:	d100      	bne.n	800125c <__aeabi_fdiv+0xbc>
 800125a:	e0a3      	b.n	80013a4 <__aeabi_fdiv+0x204>
 800125c:	4642      	mov	r2, r8
 800125e:	002c      	movs	r4, r5
 8001260:	2b01      	cmp	r3, #1
 8001262:	d135      	bne.n	80012d0 <__aeabi_fdiv+0x130>
 8001264:	2000      	movs	r0, #0
 8001266:	2400      	movs	r4, #0
 8001268:	e7e9      	b.n	800123e <__aeabi_fdiv+0x9e>
 800126a:	2d00      	cmp	r5, #0
 800126c:	d11b      	bne.n	80012a6 <__aeabi_fdiv+0x106>
 800126e:	2304      	movs	r3, #4
 8001270:	4699      	mov	r9, r3
 8001272:	3b03      	subs	r3, #3
 8001274:	2700      	movs	r7, #0
 8001276:	469a      	mov	sl, r3
 8001278:	e7a9      	b.n	80011ce <__aeabi_fdiv+0x2e>
 800127a:	2c00      	cmp	r4, #0
 800127c:	d10c      	bne.n	8001298 <__aeabi_fdiv+0xf8>
 800127e:	2302      	movs	r3, #2
 8001280:	3fff      	subs	r7, #255	@ 0xff
 8001282:	e7cf      	b.n	8001224 <__aeabi_fdiv+0x84>
 8001284:	0020      	movs	r0, r4
 8001286:	f000 fdc1 	bl	8001e0c <__clzsi2>
 800128a:	1f43      	subs	r3, r0, #5
 800128c:	409c      	lsls	r4, r3
 800128e:	2376      	movs	r3, #118	@ 0x76
 8001290:	425b      	negs	r3, r3
 8001292:	1a1b      	subs	r3, r3, r0
 8001294:	2000      	movs	r0, #0
 8001296:	e7a9      	b.n	80011ec <__aeabi_fdiv+0x4c>
 8001298:	2303      	movs	r3, #3
 800129a:	464a      	mov	r2, r9
 800129c:	431a      	orrs	r2, r3
 800129e:	4691      	mov	r9, r2
 80012a0:	2003      	movs	r0, #3
 80012a2:	33fc      	adds	r3, #252	@ 0xfc
 80012a4:	e7a2      	b.n	80011ec <__aeabi_fdiv+0x4c>
 80012a6:	0028      	movs	r0, r5
 80012a8:	f000 fdb0 	bl	8001e0c <__clzsi2>
 80012ac:	2776      	movs	r7, #118	@ 0x76
 80012ae:	1f43      	subs	r3, r0, #5
 80012b0:	409d      	lsls	r5, r3
 80012b2:	2300      	movs	r3, #0
 80012b4:	427f      	negs	r7, r7
 80012b6:	4699      	mov	r9, r3
 80012b8:	469a      	mov	sl, r3
 80012ba:	1a3f      	subs	r7, r7, r0
 80012bc:	e787      	b.n	80011ce <__aeabi_fdiv+0x2e>
 80012be:	230c      	movs	r3, #12
 80012c0:	4699      	mov	r9, r3
 80012c2:	3b09      	subs	r3, #9
 80012c4:	27ff      	movs	r7, #255	@ 0xff
 80012c6:	469a      	mov	sl, r3
 80012c8:	e781      	b.n	80011ce <__aeabi_fdiv+0x2e>
 80012ca:	2803      	cmp	r0, #3
 80012cc:	d06c      	beq.n	80013a8 <__aeabi_fdiv+0x208>
 80012ce:	0032      	movs	r2, r6
 80012d0:	0038      	movs	r0, r7
 80012d2:	307f      	adds	r0, #127	@ 0x7f
 80012d4:	2800      	cmp	r0, #0
 80012d6:	dd25      	ble.n	8001324 <__aeabi_fdiv+0x184>
 80012d8:	0763      	lsls	r3, r4, #29
 80012da:	d004      	beq.n	80012e6 <__aeabi_fdiv+0x146>
 80012dc:	230f      	movs	r3, #15
 80012de:	4023      	ands	r3, r4
 80012e0:	2b04      	cmp	r3, #4
 80012e2:	d000      	beq.n	80012e6 <__aeabi_fdiv+0x146>
 80012e4:	3404      	adds	r4, #4
 80012e6:	0123      	lsls	r3, r4, #4
 80012e8:	d503      	bpl.n	80012f2 <__aeabi_fdiv+0x152>
 80012ea:	0038      	movs	r0, r7
 80012ec:	4b34      	ldr	r3, [pc, #208]	@ (80013c0 <__aeabi_fdiv+0x220>)
 80012ee:	3080      	adds	r0, #128	@ 0x80
 80012f0:	401c      	ands	r4, r3
 80012f2:	28fe      	cmp	r0, #254	@ 0xfe
 80012f4:	dca1      	bgt.n	800123a <__aeabi_fdiv+0x9a>
 80012f6:	01a4      	lsls	r4, r4, #6
 80012f8:	0a64      	lsrs	r4, r4, #9
 80012fa:	b2c0      	uxtb	r0, r0
 80012fc:	e79f      	b.n	800123e <__aeabi_fdiv+0x9e>
 80012fe:	2480      	movs	r4, #128	@ 0x80
 8001300:	2200      	movs	r2, #0
 8001302:	20ff      	movs	r0, #255	@ 0xff
 8001304:	03e4      	lsls	r4, r4, #15
 8001306:	e79a      	b.n	800123e <__aeabi_fdiv+0x9e>
 8001308:	2380      	movs	r3, #128	@ 0x80
 800130a:	03db      	lsls	r3, r3, #15
 800130c:	421d      	tst	r5, r3
 800130e:	d001      	beq.n	8001314 <__aeabi_fdiv+0x174>
 8001310:	421c      	tst	r4, r3
 8001312:	d04b      	beq.n	80013ac <__aeabi_fdiv+0x20c>
 8001314:	2480      	movs	r4, #128	@ 0x80
 8001316:	03e4      	lsls	r4, r4, #15
 8001318:	432c      	orrs	r4, r5
 800131a:	0264      	lsls	r4, r4, #9
 800131c:	4642      	mov	r2, r8
 800131e:	20ff      	movs	r0, #255	@ 0xff
 8001320:	0a64      	lsrs	r4, r4, #9
 8001322:	e78c      	b.n	800123e <__aeabi_fdiv+0x9e>
 8001324:	2301      	movs	r3, #1
 8001326:	1a1b      	subs	r3, r3, r0
 8001328:	2b1b      	cmp	r3, #27
 800132a:	dc9b      	bgt.n	8001264 <__aeabi_fdiv+0xc4>
 800132c:	0021      	movs	r1, r4
 800132e:	379e      	adds	r7, #158	@ 0x9e
 8001330:	40d9      	lsrs	r1, r3
 8001332:	40bc      	lsls	r4, r7
 8001334:	000b      	movs	r3, r1
 8001336:	1e61      	subs	r1, r4, #1
 8001338:	418c      	sbcs	r4, r1
 800133a:	4323      	orrs	r3, r4
 800133c:	0759      	lsls	r1, r3, #29
 800133e:	d004      	beq.n	800134a <__aeabi_fdiv+0x1aa>
 8001340:	210f      	movs	r1, #15
 8001342:	4019      	ands	r1, r3
 8001344:	2904      	cmp	r1, #4
 8001346:	d000      	beq.n	800134a <__aeabi_fdiv+0x1aa>
 8001348:	3304      	adds	r3, #4
 800134a:	0159      	lsls	r1, r3, #5
 800134c:	d526      	bpl.n	800139c <__aeabi_fdiv+0x1fc>
 800134e:	2001      	movs	r0, #1
 8001350:	2400      	movs	r4, #0
 8001352:	e774      	b.n	800123e <__aeabi_fdiv+0x9e>
 8001354:	016d      	lsls	r5, r5, #5
 8001356:	0160      	lsls	r0, r4, #5
 8001358:	4285      	cmp	r5, r0
 800135a:	d213      	bcs.n	8001384 <__aeabi_fdiv+0x1e4>
 800135c:	231b      	movs	r3, #27
 800135e:	2400      	movs	r4, #0
 8001360:	3f01      	subs	r7, #1
 8001362:	2601      	movs	r6, #1
 8001364:	0029      	movs	r1, r5
 8001366:	0064      	lsls	r4, r4, #1
 8001368:	006d      	lsls	r5, r5, #1
 800136a:	2900      	cmp	r1, #0
 800136c:	db01      	blt.n	8001372 <__aeabi_fdiv+0x1d2>
 800136e:	42a8      	cmp	r0, r5
 8001370:	d801      	bhi.n	8001376 <__aeabi_fdiv+0x1d6>
 8001372:	1a2d      	subs	r5, r5, r0
 8001374:	4334      	orrs	r4, r6
 8001376:	3b01      	subs	r3, #1
 8001378:	2b00      	cmp	r3, #0
 800137a:	d1f3      	bne.n	8001364 <__aeabi_fdiv+0x1c4>
 800137c:	1e6b      	subs	r3, r5, #1
 800137e:	419d      	sbcs	r5, r3
 8001380:	432c      	orrs	r4, r5
 8001382:	e7a5      	b.n	80012d0 <__aeabi_fdiv+0x130>
 8001384:	231a      	movs	r3, #26
 8001386:	2401      	movs	r4, #1
 8001388:	1a2d      	subs	r5, r5, r0
 800138a:	e7ea      	b.n	8001362 <__aeabi_fdiv+0x1c2>
 800138c:	1e98      	subs	r0, r3, #2
 800138e:	4243      	negs	r3, r0
 8001390:	4158      	adcs	r0, r3
 8001392:	4240      	negs	r0, r0
 8001394:	0032      	movs	r2, r6
 8001396:	2400      	movs	r4, #0
 8001398:	b2c0      	uxtb	r0, r0
 800139a:	e750      	b.n	800123e <__aeabi_fdiv+0x9e>
 800139c:	019b      	lsls	r3, r3, #6
 800139e:	2000      	movs	r0, #0
 80013a0:	0a5c      	lsrs	r4, r3, #9
 80013a2:	e74c      	b.n	800123e <__aeabi_fdiv+0x9e>
 80013a4:	4646      	mov	r6, r8
 80013a6:	002c      	movs	r4, r5
 80013a8:	2380      	movs	r3, #128	@ 0x80
 80013aa:	03db      	lsls	r3, r3, #15
 80013ac:	431c      	orrs	r4, r3
 80013ae:	0264      	lsls	r4, r4, #9
 80013b0:	0032      	movs	r2, r6
 80013b2:	20ff      	movs	r0, #255	@ 0xff
 80013b4:	0a64      	lsrs	r4, r4, #9
 80013b6:	e742      	b.n	800123e <__aeabi_fdiv+0x9e>
 80013b8:	08002524 	.word	0x08002524
 80013bc:	08002564 	.word	0x08002564
 80013c0:	f7ffffff 	.word	0xf7ffffff

080013c4 <__aeabi_fmul>:
 80013c4:	b5f0      	push	{r4, r5, r6, r7, lr}
 80013c6:	464f      	mov	r7, r9
 80013c8:	4646      	mov	r6, r8
 80013ca:	46d6      	mov	lr, sl
 80013cc:	0245      	lsls	r5, r0, #9
 80013ce:	b5c0      	push	{r6, r7, lr}
 80013d0:	0046      	lsls	r6, r0, #1
 80013d2:	1c0f      	adds	r7, r1, #0
 80013d4:	0a6d      	lsrs	r5, r5, #9
 80013d6:	0e36      	lsrs	r6, r6, #24
 80013d8:	0fc4      	lsrs	r4, r0, #31
 80013da:	2e00      	cmp	r6, #0
 80013dc:	d100      	bne.n	80013e0 <__aeabi_fmul+0x1c>
 80013de:	e0c3      	b.n	8001568 <__aeabi_fmul+0x1a4>
 80013e0:	2eff      	cmp	r6, #255	@ 0xff
 80013e2:	d077      	beq.n	80014d4 <__aeabi_fmul+0x110>
 80013e4:	2380      	movs	r3, #128	@ 0x80
 80013e6:	00ed      	lsls	r5, r5, #3
 80013e8:	04db      	lsls	r3, r3, #19
 80013ea:	431d      	orrs	r5, r3
 80013ec:	2300      	movs	r3, #0
 80013ee:	4699      	mov	r9, r3
 80013f0:	469a      	mov	sl, r3
 80013f2:	3e7f      	subs	r6, #127	@ 0x7f
 80013f4:	027b      	lsls	r3, r7, #9
 80013f6:	0a5b      	lsrs	r3, r3, #9
 80013f8:	4698      	mov	r8, r3
 80013fa:	007b      	lsls	r3, r7, #1
 80013fc:	0e1b      	lsrs	r3, r3, #24
 80013fe:	0fff      	lsrs	r7, r7, #31
 8001400:	2b00      	cmp	r3, #0
 8001402:	d077      	beq.n	80014f4 <__aeabi_fmul+0x130>
 8001404:	2bff      	cmp	r3, #255	@ 0xff
 8001406:	d100      	bne.n	800140a <__aeabi_fmul+0x46>
 8001408:	e094      	b.n	8001534 <__aeabi_fmul+0x170>
 800140a:	4642      	mov	r2, r8
 800140c:	2180      	movs	r1, #128	@ 0x80
 800140e:	00d2      	lsls	r2, r2, #3
 8001410:	04c9      	lsls	r1, r1, #19
 8001412:	4311      	orrs	r1, r2
 8001414:	4688      	mov	r8, r1
 8001416:	2100      	movs	r1, #0
 8001418:	3b7f      	subs	r3, #127	@ 0x7f
 800141a:	18f6      	adds	r6, r6, r3
 800141c:	464b      	mov	r3, r9
 800141e:	1c72      	adds	r2, r6, #1
 8001420:	2b0a      	cmp	r3, #10
 8001422:	dc73      	bgt.n	800150c <__aeabi_fmul+0x148>
 8001424:	464b      	mov	r3, r9
 8001426:	407c      	eors	r4, r7
 8001428:	2b02      	cmp	r3, #2
 800142a:	dc00      	bgt.n	800142e <__aeabi_fmul+0x6a>
 800142c:	e0a7      	b.n	800157e <__aeabi_fmul+0x1ba>
 800142e:	4648      	mov	r0, r9
 8001430:	2301      	movs	r3, #1
 8001432:	4083      	lsls	r3, r0
 8001434:	20a6      	movs	r0, #166	@ 0xa6
 8001436:	00c0      	lsls	r0, r0, #3
 8001438:	4203      	tst	r3, r0
 800143a:	d167      	bne.n	800150c <__aeabi_fmul+0x148>
 800143c:	2090      	movs	r0, #144	@ 0x90
 800143e:	0080      	lsls	r0, r0, #2
 8001440:	4203      	tst	r3, r0
 8001442:	d000      	beq.n	8001446 <__aeabi_fmul+0x82>
 8001444:	e0ec      	b.n	8001620 <__aeabi_fmul+0x25c>
 8001446:	38b9      	subs	r0, #185	@ 0xb9
 8001448:	38ff      	subs	r0, #255	@ 0xff
 800144a:	4218      	tst	r0, r3
 800144c:	d000      	beq.n	8001450 <__aeabi_fmul+0x8c>
 800144e:	e0da      	b.n	8001606 <__aeabi_fmul+0x242>
 8001450:	4641      	mov	r1, r8
 8001452:	0409      	lsls	r1, r1, #16
 8001454:	0c09      	lsrs	r1, r1, #16
 8001456:	4643      	mov	r3, r8
 8001458:	000f      	movs	r7, r1
 800145a:	0c28      	lsrs	r0, r5, #16
 800145c:	042d      	lsls	r5, r5, #16
 800145e:	0c1b      	lsrs	r3, r3, #16
 8001460:	0c2d      	lsrs	r5, r5, #16
 8001462:	436f      	muls	r7, r5
 8001464:	4341      	muls	r1, r0
 8001466:	435d      	muls	r5, r3
 8001468:	4358      	muls	r0, r3
 800146a:	186d      	adds	r5, r5, r1
 800146c:	0c3b      	lsrs	r3, r7, #16
 800146e:	195b      	adds	r3, r3, r5
 8001470:	4299      	cmp	r1, r3
 8001472:	d903      	bls.n	800147c <__aeabi_fmul+0xb8>
 8001474:	2180      	movs	r1, #128	@ 0x80
 8001476:	0249      	lsls	r1, r1, #9
 8001478:	468c      	mov	ip, r1
 800147a:	4460      	add	r0, ip
 800147c:	043f      	lsls	r7, r7, #16
 800147e:	0419      	lsls	r1, r3, #16
 8001480:	0c3f      	lsrs	r7, r7, #16
 8001482:	19c9      	adds	r1, r1, r7
 8001484:	018d      	lsls	r5, r1, #6
 8001486:	1e6f      	subs	r7, r5, #1
 8001488:	41bd      	sbcs	r5, r7
 800148a:	0c1b      	lsrs	r3, r3, #16
 800148c:	0e89      	lsrs	r1, r1, #26
 800148e:	181b      	adds	r3, r3, r0
 8001490:	430d      	orrs	r5, r1
 8001492:	019b      	lsls	r3, r3, #6
 8001494:	431d      	orrs	r5, r3
 8001496:	011b      	lsls	r3, r3, #4
 8001498:	d400      	bmi.n	800149c <__aeabi_fmul+0xd8>
 800149a:	e0c6      	b.n	800162a <__aeabi_fmul+0x266>
 800149c:	2301      	movs	r3, #1
 800149e:	0869      	lsrs	r1, r5, #1
 80014a0:	401d      	ands	r5, r3
 80014a2:	430d      	orrs	r5, r1
 80014a4:	0010      	movs	r0, r2
 80014a6:	307f      	adds	r0, #127	@ 0x7f
 80014a8:	2800      	cmp	r0, #0
 80014aa:	dc00      	bgt.n	80014ae <__aeabi_fmul+0xea>
 80014ac:	e094      	b.n	80015d8 <__aeabi_fmul+0x214>
 80014ae:	076b      	lsls	r3, r5, #29
 80014b0:	d004      	beq.n	80014bc <__aeabi_fmul+0xf8>
 80014b2:	230f      	movs	r3, #15
 80014b4:	402b      	ands	r3, r5
 80014b6:	2b04      	cmp	r3, #4
 80014b8:	d000      	beq.n	80014bc <__aeabi_fmul+0xf8>
 80014ba:	3504      	adds	r5, #4
 80014bc:	012b      	lsls	r3, r5, #4
 80014be:	d503      	bpl.n	80014c8 <__aeabi_fmul+0x104>
 80014c0:	3280      	adds	r2, #128	@ 0x80
 80014c2:	0010      	movs	r0, r2
 80014c4:	4b5e      	ldr	r3, [pc, #376]	@ (8001640 <__aeabi_fmul+0x27c>)
 80014c6:	401d      	ands	r5, r3
 80014c8:	28fe      	cmp	r0, #254	@ 0xfe
 80014ca:	dc55      	bgt.n	8001578 <__aeabi_fmul+0x1b4>
 80014cc:	01ab      	lsls	r3, r5, #6
 80014ce:	0a5b      	lsrs	r3, r3, #9
 80014d0:	b2c0      	uxtb	r0, r0
 80014d2:	e026      	b.n	8001522 <__aeabi_fmul+0x15e>
 80014d4:	2d00      	cmp	r5, #0
 80014d6:	d000      	beq.n	80014da <__aeabi_fmul+0x116>
 80014d8:	e078      	b.n	80015cc <__aeabi_fmul+0x208>
 80014da:	2308      	movs	r3, #8
 80014dc:	4699      	mov	r9, r3
 80014de:	3b06      	subs	r3, #6
 80014e0:	469a      	mov	sl, r3
 80014e2:	027b      	lsls	r3, r7, #9
 80014e4:	0a5b      	lsrs	r3, r3, #9
 80014e6:	4698      	mov	r8, r3
 80014e8:	007b      	lsls	r3, r7, #1
 80014ea:	26ff      	movs	r6, #255	@ 0xff
 80014ec:	0e1b      	lsrs	r3, r3, #24
 80014ee:	0fff      	lsrs	r7, r7, #31
 80014f0:	2b00      	cmp	r3, #0
 80014f2:	d187      	bne.n	8001404 <__aeabi_fmul+0x40>
 80014f4:	4643      	mov	r3, r8
 80014f6:	2b00      	cmp	r3, #0
 80014f8:	d156      	bne.n	80015a8 <__aeabi_fmul+0x1e4>
 80014fa:	464a      	mov	r2, r9
 80014fc:	3301      	adds	r3, #1
 80014fe:	431a      	orrs	r2, r3
 8001500:	4691      	mov	r9, r2
 8001502:	464b      	mov	r3, r9
 8001504:	2101      	movs	r1, #1
 8001506:	1c72      	adds	r2, r6, #1
 8001508:	2b0a      	cmp	r3, #10
 800150a:	dd8b      	ble.n	8001424 <__aeabi_fmul+0x60>
 800150c:	4653      	mov	r3, sl
 800150e:	2b02      	cmp	r3, #2
 8001510:	d032      	beq.n	8001578 <__aeabi_fmul+0x1b4>
 8001512:	2b03      	cmp	r3, #3
 8001514:	d100      	bne.n	8001518 <__aeabi_fmul+0x154>
 8001516:	e07c      	b.n	8001612 <__aeabi_fmul+0x24e>
 8001518:	4653      	mov	r3, sl
 800151a:	2b01      	cmp	r3, #1
 800151c:	d1c2      	bne.n	80014a4 <__aeabi_fmul+0xe0>
 800151e:	2000      	movs	r0, #0
 8001520:	2300      	movs	r3, #0
 8001522:	05c0      	lsls	r0, r0, #23
 8001524:	4318      	orrs	r0, r3
 8001526:	07e4      	lsls	r4, r4, #31
 8001528:	4320      	orrs	r0, r4
 800152a:	bce0      	pop	{r5, r6, r7}
 800152c:	46ba      	mov	sl, r7
 800152e:	46b1      	mov	r9, r6
 8001530:	46a8      	mov	r8, r5
 8001532:	bdf0      	pop	{r4, r5, r6, r7, pc}
 8001534:	0033      	movs	r3, r6
 8001536:	4642      	mov	r2, r8
 8001538:	33ff      	adds	r3, #255	@ 0xff
 800153a:	2a00      	cmp	r2, #0
 800153c:	d03f      	beq.n	80015be <__aeabi_fmul+0x1fa>
 800153e:	2203      	movs	r2, #3
 8001540:	4649      	mov	r1, r9
 8001542:	4311      	orrs	r1, r2
 8001544:	1c72      	adds	r2, r6, #1
 8001546:	4689      	mov	r9, r1
 8001548:	32ff      	adds	r2, #255	@ 0xff
 800154a:	290a      	cmp	r1, #10
 800154c:	dd73      	ble.n	8001636 <__aeabi_fmul+0x272>
 800154e:	290f      	cmp	r1, #15
 8001550:	d15d      	bne.n	800160e <__aeabi_fmul+0x24a>
 8001552:	2380      	movs	r3, #128	@ 0x80
 8001554:	03db      	lsls	r3, r3, #15
 8001556:	421d      	tst	r5, r3
 8001558:	d05b      	beq.n	8001612 <__aeabi_fmul+0x24e>
 800155a:	4642      	mov	r2, r8
 800155c:	421a      	tst	r2, r3
 800155e:	d158      	bne.n	8001612 <__aeabi_fmul+0x24e>
 8001560:	003c      	movs	r4, r7
 8001562:	20ff      	movs	r0, #255	@ 0xff
 8001564:	4313      	orrs	r3, r2
 8001566:	e7dc      	b.n	8001522 <__aeabi_fmul+0x15e>
 8001568:	2d00      	cmp	r5, #0
 800156a:	d111      	bne.n	8001590 <__aeabi_fmul+0x1cc>
 800156c:	2304      	movs	r3, #4
 800156e:	4699      	mov	r9, r3
 8001570:	3b03      	subs	r3, #3
 8001572:	2600      	movs	r6, #0
 8001574:	469a      	mov	sl, r3
 8001576:	e73d      	b.n	80013f4 <__aeabi_fmul+0x30>
 8001578:	20ff      	movs	r0, #255	@ 0xff
 800157a:	2300      	movs	r3, #0
 800157c:	e7d1      	b.n	8001522 <__aeabi_fmul+0x15e>
 800157e:	3b01      	subs	r3, #1
 8001580:	2b01      	cmp	r3, #1
 8001582:	d900      	bls.n	8001586 <__aeabi_fmul+0x1c2>
 8001584:	e764      	b.n	8001450 <__aeabi_fmul+0x8c>
 8001586:	2902      	cmp	r1, #2
 8001588:	d0f6      	beq.n	8001578 <__aeabi_fmul+0x1b4>
 800158a:	4645      	mov	r5, r8
 800158c:	468a      	mov	sl, r1
 800158e:	e7c3      	b.n	8001518 <__aeabi_fmul+0x154>
 8001590:	0028      	movs	r0, r5
 8001592:	f000 fc3b 	bl	8001e0c <__clzsi2>
 8001596:	2676      	movs	r6, #118	@ 0x76
 8001598:	1f43      	subs	r3, r0, #5
 800159a:	409d      	lsls	r5, r3
 800159c:	2300      	movs	r3, #0
 800159e:	4276      	negs	r6, r6
 80015a0:	4699      	mov	r9, r3
 80015a2:	469a      	mov	sl, r3
 80015a4:	1a36      	subs	r6, r6, r0
 80015a6:	e725      	b.n	80013f4 <__aeabi_fmul+0x30>
 80015a8:	4640      	mov	r0, r8
 80015aa:	f000 fc2f 	bl	8001e0c <__clzsi2>
 80015ae:	4642      	mov	r2, r8
 80015b0:	1f43      	subs	r3, r0, #5
 80015b2:	409a      	lsls	r2, r3
 80015b4:	1a36      	subs	r6, r6, r0
 80015b6:	4690      	mov	r8, r2
 80015b8:	2100      	movs	r1, #0
 80015ba:	3e76      	subs	r6, #118	@ 0x76
 80015bc:	e72e      	b.n	800141c <__aeabi_fmul+0x58>
 80015be:	4649      	mov	r1, r9
 80015c0:	3202      	adds	r2, #2
 80015c2:	4311      	orrs	r1, r2
 80015c4:	4689      	mov	r9, r1
 80015c6:	001e      	movs	r6, r3
 80015c8:	2102      	movs	r1, #2
 80015ca:	e727      	b.n	800141c <__aeabi_fmul+0x58>
 80015cc:	230c      	movs	r3, #12
 80015ce:	4699      	mov	r9, r3
 80015d0:	3b09      	subs	r3, #9
 80015d2:	26ff      	movs	r6, #255	@ 0xff
 80015d4:	469a      	mov	sl, r3
 80015d6:	e70d      	b.n	80013f4 <__aeabi_fmul+0x30>
 80015d8:	2301      	movs	r3, #1
 80015da:	1a1b      	subs	r3, r3, r0
 80015dc:	2b1b      	cmp	r3, #27
 80015de:	dc9e      	bgt.n	800151e <__aeabi_fmul+0x15a>
 80015e0:	329e      	adds	r2, #158	@ 0x9e
 80015e2:	0029      	movs	r1, r5
 80015e4:	4095      	lsls	r5, r2
 80015e6:	40d9      	lsrs	r1, r3
 80015e8:	1e6a      	subs	r2, r5, #1
 80015ea:	4195      	sbcs	r5, r2
 80015ec:	430d      	orrs	r5, r1
 80015ee:	076b      	lsls	r3, r5, #29
 80015f0:	d004      	beq.n	80015fc <__aeabi_fmul+0x238>
 80015f2:	230f      	movs	r3, #15
 80015f4:	402b      	ands	r3, r5
 80015f6:	2b04      	cmp	r3, #4
 80015f8:	d000      	beq.n	80015fc <__aeabi_fmul+0x238>
 80015fa:	3504      	adds	r5, #4
 80015fc:	016b      	lsls	r3, r5, #5
 80015fe:	d516      	bpl.n	800162e <__aeabi_fmul+0x26a>
 8001600:	2001      	movs	r0, #1
 8001602:	2300      	movs	r3, #0
 8001604:	e78d      	b.n	8001522 <__aeabi_fmul+0x15e>
 8001606:	003c      	movs	r4, r7
 8001608:	4645      	mov	r5, r8
 800160a:	468a      	mov	sl, r1
 800160c:	e77e      	b.n	800150c <__aeabi_fmul+0x148>
 800160e:	003c      	movs	r4, r7
 8001610:	4645      	mov	r5, r8
 8001612:	2380      	movs	r3, #128	@ 0x80
 8001614:	03db      	lsls	r3, r3, #15
 8001616:	432b      	orrs	r3, r5
 8001618:	025b      	lsls	r3, r3, #9
 800161a:	20ff      	movs	r0, #255	@ 0xff
 800161c:	0a5b      	lsrs	r3, r3, #9
 800161e:	e780      	b.n	8001522 <__aeabi_fmul+0x15e>
 8001620:	2380      	movs	r3, #128	@ 0x80
 8001622:	2400      	movs	r4, #0
 8001624:	20ff      	movs	r0, #255	@ 0xff
 8001626:	03db      	lsls	r3, r3, #15
 8001628:	e77b      	b.n	8001522 <__aeabi_fmul+0x15e>
 800162a:	0032      	movs	r2, r6
 800162c:	e73a      	b.n	80014a4 <__aeabi_fmul+0xe0>
 800162e:	01ab      	lsls	r3, r5, #6
 8001630:	2000      	movs	r0, #0
 8001632:	0a5b      	lsrs	r3, r3, #9
 8001634:	e775      	b.n	8001522 <__aeabi_fmul+0x15e>
 8001636:	001e      	movs	r6, r3
 8001638:	2103      	movs	r1, #3
 800163a:	407c      	eors	r4, r7
 800163c:	e6f7      	b.n	800142e <__aeabi_fmul+0x6a>
 800163e:	46c0      	nop			@ (mov r8, r8)
 8001640:	f7ffffff 	.word	0xf7ffffff

08001644 <__aeabi_i2f>:
 8001644:	b570      	push	{r4, r5, r6, lr}
 8001646:	2800      	cmp	r0, #0
 8001648:	d013      	beq.n	8001672 <__aeabi_i2f+0x2e>
 800164a:	17c3      	asrs	r3, r0, #31
 800164c:	18c5      	adds	r5, r0, r3
 800164e:	405d      	eors	r5, r3
 8001650:	0fc4      	lsrs	r4, r0, #31
 8001652:	0028      	movs	r0, r5
 8001654:	f000 fbda 	bl	8001e0c <__clzsi2>
 8001658:	239e      	movs	r3, #158	@ 0x9e
 800165a:	0001      	movs	r1, r0
 800165c:	1a1b      	subs	r3, r3, r0
 800165e:	2b96      	cmp	r3, #150	@ 0x96
 8001660:	dc0f      	bgt.n	8001682 <__aeabi_i2f+0x3e>
 8001662:	2808      	cmp	r0, #8
 8001664:	d031      	beq.n	80016ca <__aeabi_i2f+0x86>
 8001666:	3908      	subs	r1, #8
 8001668:	408d      	lsls	r5, r1
 800166a:	026d      	lsls	r5, r5, #9
 800166c:	0a6d      	lsrs	r5, r5, #9
 800166e:	b2d8      	uxtb	r0, r3
 8001670:	e002      	b.n	8001678 <__aeabi_i2f+0x34>
 8001672:	2400      	movs	r4, #0
 8001674:	2000      	movs	r0, #0
 8001676:	2500      	movs	r5, #0
 8001678:	05c0      	lsls	r0, r0, #23
 800167a:	4328      	orrs	r0, r5
 800167c:	07e4      	lsls	r4, r4, #31
 800167e:	4320      	orrs	r0, r4
 8001680:	bd70      	pop	{r4, r5, r6, pc}
 8001682:	2b99      	cmp	r3, #153	@ 0x99
 8001684:	dc15      	bgt.n	80016b2 <__aeabi_i2f+0x6e>
 8001686:	1f42      	subs	r2, r0, #5
 8001688:	4095      	lsls	r5, r2
 800168a:	002a      	movs	r2, r5
 800168c:	0015      	movs	r5, r2
 800168e:	4811      	ldr	r0, [pc, #68]	@ (80016d4 <__aeabi_i2f+0x90>)
 8001690:	4005      	ands	r5, r0
 8001692:	0756      	lsls	r6, r2, #29
 8001694:	d009      	beq.n	80016aa <__aeabi_i2f+0x66>
 8001696:	260f      	movs	r6, #15
 8001698:	4032      	ands	r2, r6
 800169a:	2a04      	cmp	r2, #4
 800169c:	d005      	beq.n	80016aa <__aeabi_i2f+0x66>
 800169e:	3504      	adds	r5, #4
 80016a0:	016a      	lsls	r2, r5, #5
 80016a2:	d502      	bpl.n	80016aa <__aeabi_i2f+0x66>
 80016a4:	239f      	movs	r3, #159	@ 0x9f
 80016a6:	4005      	ands	r5, r0
 80016a8:	1a5b      	subs	r3, r3, r1
 80016aa:	01ad      	lsls	r5, r5, #6
 80016ac:	0a6d      	lsrs	r5, r5, #9
 80016ae:	b2d8      	uxtb	r0, r3
 80016b0:	e7e2      	b.n	8001678 <__aeabi_i2f+0x34>
 80016b2:	2205      	movs	r2, #5
 80016b4:	1a12      	subs	r2, r2, r0
 80016b6:	0028      	movs	r0, r5
 80016b8:	40d0      	lsrs	r0, r2
 80016ba:	000a      	movs	r2, r1
 80016bc:	321b      	adds	r2, #27
 80016be:	4095      	lsls	r5, r2
 80016c0:	002a      	movs	r2, r5
 80016c2:	1e55      	subs	r5, r2, #1
 80016c4:	41aa      	sbcs	r2, r5
 80016c6:	4302      	orrs	r2, r0
 80016c8:	e7e0      	b.n	800168c <__aeabi_i2f+0x48>
 80016ca:	026d      	lsls	r5, r5, #9
 80016cc:	2096      	movs	r0, #150	@ 0x96
 80016ce:	0a6d      	lsrs	r5, r5, #9
 80016d0:	e7d2      	b.n	8001678 <__aeabi_i2f+0x34>
 80016d2:	46c0      	nop			@ (mov r8, r8)
 80016d4:	fbffffff 	.word	0xfbffffff

080016d8 <__aeabi_dmul>:
 80016d8:	b5f0      	push	{r4, r5, r6, r7, lr}
 80016da:	4657      	mov	r7, sl
 80016dc:	464e      	mov	r6, r9
 80016de:	46de      	mov	lr, fp
 80016e0:	4645      	mov	r5, r8
 80016e2:	b5e0      	push	{r5, r6, r7, lr}
 80016e4:	b089      	sub	sp, #36	@ 0x24
 80016e6:	9200      	str	r2, [sp, #0]
 80016e8:	9301      	str	r3, [sp, #4]
 80016ea:	030b      	lsls	r3, r1, #12
 80016ec:	0b1b      	lsrs	r3, r3, #12
 80016ee:	469a      	mov	sl, r3
 80016f0:	0fca      	lsrs	r2, r1, #31
 80016f2:	004b      	lsls	r3, r1, #1
 80016f4:	0004      	movs	r4, r0
 80016f6:	4691      	mov	r9, r2
 80016f8:	0d5b      	lsrs	r3, r3, #21
 80016fa:	d100      	bne.n	80016fe <__aeabi_dmul+0x26>
 80016fc:	e1bc      	b.n	8001a78 <__aeabi_dmul+0x3a0>
 80016fe:	4ad8      	ldr	r2, [pc, #864]	@ (8001a60 <__aeabi_dmul+0x388>)
 8001700:	4293      	cmp	r3, r2
 8001702:	d100      	bne.n	8001706 <__aeabi_dmul+0x2e>
 8001704:	e14a      	b.n	800199c <__aeabi_dmul+0x2c4>
 8001706:	4651      	mov	r1, sl
 8001708:	0f42      	lsrs	r2, r0, #29
 800170a:	00c9      	lsls	r1, r1, #3
 800170c:	430a      	orrs	r2, r1
 800170e:	2180      	movs	r1, #128	@ 0x80
 8001710:	0409      	lsls	r1, r1, #16
 8001712:	4311      	orrs	r1, r2
 8001714:	00c2      	lsls	r2, r0, #3
 8001716:	4690      	mov	r8, r2
 8001718:	4ad2      	ldr	r2, [pc, #840]	@ (8001a64 <__aeabi_dmul+0x38c>)
 800171a:	468a      	mov	sl, r1
 800171c:	189c      	adds	r4, r3, r2
 800171e:	2300      	movs	r3, #0
 8001720:	2500      	movs	r5, #0
 8001722:	9303      	str	r3, [sp, #12]
 8001724:	9e00      	ldr	r6, [sp, #0]
 8001726:	9f01      	ldr	r7, [sp, #4]
 8001728:	033b      	lsls	r3, r7, #12
 800172a:	0b1b      	lsrs	r3, r3, #12
 800172c:	469b      	mov	fp, r3
 800172e:	0ffa      	lsrs	r2, r7, #31
 8001730:	007b      	lsls	r3, r7, #1
 8001732:	0030      	movs	r0, r6
 8001734:	0d5b      	lsrs	r3, r3, #21
 8001736:	9204      	str	r2, [sp, #16]
 8001738:	d100      	bne.n	800173c <__aeabi_dmul+0x64>
 800173a:	e16f      	b.n	8001a1c <__aeabi_dmul+0x344>
 800173c:	4ac8      	ldr	r2, [pc, #800]	@ (8001a60 <__aeabi_dmul+0x388>)
 800173e:	4293      	cmp	r3, r2
 8001740:	d100      	bne.n	8001744 <__aeabi_dmul+0x6c>
 8001742:	e153      	b.n	80019ec <__aeabi_dmul+0x314>
 8001744:	4659      	mov	r1, fp
 8001746:	0f72      	lsrs	r2, r6, #29
 8001748:	00c9      	lsls	r1, r1, #3
 800174a:	430a      	orrs	r2, r1
 800174c:	2180      	movs	r1, #128	@ 0x80
 800174e:	0409      	lsls	r1, r1, #16
 8001750:	4311      	orrs	r1, r2
 8001752:	4ac4      	ldr	r2, [pc, #784]	@ (8001a64 <__aeabi_dmul+0x38c>)
 8001754:	468b      	mov	fp, r1
 8001756:	4694      	mov	ip, r2
 8001758:	2100      	movs	r1, #0
 800175a:	4463      	add	r3, ip
 800175c:	00f0      	lsls	r0, r6, #3
 800175e:	191b      	adds	r3, r3, r4
 8001760:	1c5c      	adds	r4, r3, #1
 8001762:	2d0a      	cmp	r5, #10
 8001764:	dd00      	ble.n	8001768 <__aeabi_dmul+0x90>
 8001766:	e126      	b.n	80019b6 <__aeabi_dmul+0x2de>
 8001768:	464e      	mov	r6, r9
 800176a:	9a04      	ldr	r2, [sp, #16]
 800176c:	4056      	eors	r6, r2
 800176e:	b2f2      	uxtb	r2, r6
 8001770:	9200      	str	r2, [sp, #0]
 8001772:	2d02      	cmp	r5, #2
 8001774:	dc00      	bgt.n	8001778 <__aeabi_dmul+0xa0>
 8001776:	e1a8      	b.n	8001aca <__aeabi_dmul+0x3f2>
 8001778:	2201      	movs	r2, #1
 800177a:	40aa      	lsls	r2, r5
 800177c:	27a6      	movs	r7, #166	@ 0xa6
 800177e:	0015      	movs	r5, r2
 8001780:	00ff      	lsls	r7, r7, #3
 8001782:	403a      	ands	r2, r7
 8001784:	423d      	tst	r5, r7
 8001786:	d000      	beq.n	800178a <__aeabi_dmul+0xb2>
 8001788:	e113      	b.n	80019b2 <__aeabi_dmul+0x2da>
 800178a:	2790      	movs	r7, #144	@ 0x90
 800178c:	00bf      	lsls	r7, r7, #2
 800178e:	423d      	tst	r5, r7
 8001790:	d000      	beq.n	8001794 <__aeabi_dmul+0xbc>
 8001792:	e216      	b.n	8001bc2 <__aeabi_dmul+0x4ea>
 8001794:	2288      	movs	r2, #136	@ 0x88
 8001796:	422a      	tst	r2, r5
 8001798:	d000      	beq.n	800179c <__aeabi_dmul+0xc4>
 800179a:	e1ef      	b.n	8001b7c <__aeabi_dmul+0x4a4>
 800179c:	4641      	mov	r1, r8
 800179e:	4642      	mov	r2, r8
 80017a0:	0409      	lsls	r1, r1, #16
 80017a2:	0c09      	lsrs	r1, r1, #16
 80017a4:	000d      	movs	r5, r1
 80017a6:	0c17      	lsrs	r7, r2, #16
 80017a8:	0c02      	lsrs	r2, r0, #16
 80017aa:	0400      	lsls	r0, r0, #16
 80017ac:	0c00      	lsrs	r0, r0, #16
 80017ae:	4345      	muls	r5, r0
 80017b0:	46ac      	mov	ip, r5
 80017b2:	0005      	movs	r5, r0
 80017b4:	0016      	movs	r6, r2
 80017b6:	437d      	muls	r5, r7
 80017b8:	46a8      	mov	r8, r5
 80017ba:	000d      	movs	r5, r1
 80017bc:	437e      	muls	r6, r7
 80017be:	9203      	str	r2, [sp, #12]
 80017c0:	9604      	str	r6, [sp, #16]
 80017c2:	0032      	movs	r2, r6
 80017c4:	9e03      	ldr	r6, [sp, #12]
 80017c6:	4375      	muls	r5, r6
 80017c8:	4666      	mov	r6, ip
 80017ca:	0c36      	lsrs	r6, r6, #16
 80017cc:	46b1      	mov	r9, r6
 80017ce:	4445      	add	r5, r8
 80017d0:	444d      	add	r5, r9
 80017d2:	45a8      	cmp	r8, r5
 80017d4:	d905      	bls.n	80017e2 <__aeabi_dmul+0x10a>
 80017d6:	0016      	movs	r6, r2
 80017d8:	2280      	movs	r2, #128	@ 0x80
 80017da:	0252      	lsls	r2, r2, #9
 80017dc:	4690      	mov	r8, r2
 80017de:	4446      	add	r6, r8
 80017e0:	9604      	str	r6, [sp, #16]
 80017e2:	0c2e      	lsrs	r6, r5, #16
 80017e4:	9605      	str	r6, [sp, #20]
 80017e6:	4666      	mov	r6, ip
 80017e8:	0436      	lsls	r6, r6, #16
 80017ea:	0c36      	lsrs	r6, r6, #16
 80017ec:	46b4      	mov	ip, r6
 80017ee:	042d      	lsls	r5, r5, #16
 80017f0:	4465      	add	r5, ip
 80017f2:	9506      	str	r5, [sp, #24]
 80017f4:	465d      	mov	r5, fp
 80017f6:	0c2d      	lsrs	r5, r5, #16
 80017f8:	46a9      	mov	r9, r5
 80017fa:	465d      	mov	r5, fp
 80017fc:	000e      	movs	r6, r1
 80017fe:	042d      	lsls	r5, r5, #16
 8001800:	0c2d      	lsrs	r5, r5, #16
 8001802:	436e      	muls	r6, r5
 8001804:	46b4      	mov	ip, r6
 8001806:	002e      	movs	r6, r5
 8001808:	437e      	muls	r6, r7
 800180a:	46b3      	mov	fp, r6
 800180c:	464e      	mov	r6, r9
 800180e:	4371      	muls	r1, r6
 8001810:	4459      	add	r1, fp
 8001812:	4688      	mov	r8, r1
 8001814:	4661      	mov	r1, ip
 8001816:	0c09      	lsrs	r1, r1, #16
 8001818:	4441      	add	r1, r8
 800181a:	4377      	muls	r7, r6
 800181c:	458b      	cmp	fp, r1
 800181e:	d903      	bls.n	8001828 <__aeabi_dmul+0x150>
 8001820:	2280      	movs	r2, #128	@ 0x80
 8001822:	0252      	lsls	r2, r2, #9
 8001824:	4690      	mov	r8, r2
 8001826:	4447      	add	r7, r8
 8001828:	0c0e      	lsrs	r6, r1, #16
 800182a:	46b0      	mov	r8, r6
 800182c:	003e      	movs	r6, r7
 800182e:	4446      	add	r6, r8
 8001830:	9607      	str	r6, [sp, #28]
 8001832:	4666      	mov	r6, ip
 8001834:	0437      	lsls	r7, r6, #16
 8001836:	9e05      	ldr	r6, [sp, #20]
 8001838:	0c3f      	lsrs	r7, r7, #16
 800183a:	46b4      	mov	ip, r6
 800183c:	0409      	lsls	r1, r1, #16
 800183e:	19c9      	adds	r1, r1, r7
 8001840:	448c      	add	ip, r1
 8001842:	4666      	mov	r6, ip
 8001844:	9605      	str	r6, [sp, #20]
 8001846:	4656      	mov	r6, sl
 8001848:	0c36      	lsrs	r6, r6, #16
 800184a:	46b4      	mov	ip, r6
 800184c:	4656      	mov	r6, sl
 800184e:	0437      	lsls	r7, r6, #16
 8001850:	0c3f      	lsrs	r7, r7, #16
 8001852:	003e      	movs	r6, r7
 8001854:	4346      	muls	r6, r0
 8001856:	46b0      	mov	r8, r6
 8001858:	4666      	mov	r6, ip
 800185a:	4346      	muls	r6, r0
 800185c:	46b2      	mov	sl, r6
 800185e:	4646      	mov	r6, r8
 8001860:	4660      	mov	r0, ip
 8001862:	0c36      	lsrs	r6, r6, #16
 8001864:	46b3      	mov	fp, r6
 8001866:	9a03      	ldr	r2, [sp, #12]
 8001868:	4350      	muls	r0, r2
 800186a:	437a      	muls	r2, r7
 800186c:	4452      	add	r2, sl
 800186e:	445a      	add	r2, fp
 8001870:	4592      	cmp	sl, r2
 8001872:	d903      	bls.n	800187c <__aeabi_dmul+0x1a4>
 8001874:	2680      	movs	r6, #128	@ 0x80
 8001876:	0276      	lsls	r6, r6, #9
 8001878:	46b2      	mov	sl, r6
 800187a:	4450      	add	r0, sl
 800187c:	0c16      	lsrs	r6, r2, #16
 800187e:	46b2      	mov	sl, r6
 8001880:	4482      	add	sl, r0
 8001882:	4640      	mov	r0, r8
 8001884:	0412      	lsls	r2, r2, #16
 8001886:	4690      	mov	r8, r2
 8001888:	0400      	lsls	r0, r0, #16
 800188a:	0c00      	lsrs	r0, r0, #16
 800188c:	003a      	movs	r2, r7
 800188e:	464e      	mov	r6, r9
 8001890:	4480      	add	r8, r0
 8001892:	4660      	mov	r0, ip
 8001894:	436a      	muls	r2, r5
 8001896:	4377      	muls	r7, r6
 8001898:	4345      	muls	r5, r0
 800189a:	4370      	muls	r0, r6
 800189c:	4684      	mov	ip, r0
 800189e:	1978      	adds	r0, r7, r5
 80018a0:	0c17      	lsrs	r7, r2, #16
 80018a2:	183f      	adds	r7, r7, r0
 80018a4:	42bd      	cmp	r5, r7
 80018a6:	d903      	bls.n	80018b0 <__aeabi_dmul+0x1d8>
 80018a8:	2080      	movs	r0, #128	@ 0x80
 80018aa:	0240      	lsls	r0, r0, #9
 80018ac:	4681      	mov	r9, r0
 80018ae:	44cc      	add	ip, r9
 80018b0:	9d05      	ldr	r5, [sp, #20]
 80018b2:	9804      	ldr	r0, [sp, #16]
 80018b4:	46a9      	mov	r9, r5
 80018b6:	9e07      	ldr	r6, [sp, #28]
 80018b8:	4448      	add	r0, r9
 80018ba:	4288      	cmp	r0, r1
 80018bc:	4189      	sbcs	r1, r1
 80018be:	46b1      	mov	r9, r6
 80018c0:	0412      	lsls	r2, r2, #16
 80018c2:	043d      	lsls	r5, r7, #16
 80018c4:	0c12      	lsrs	r2, r2, #16
 80018c6:	18aa      	adds	r2, r5, r2
 80018c8:	444a      	add	r2, r9
 80018ca:	4249      	negs	r1, r1
 80018cc:	1855      	adds	r5, r2, r1
 80018ce:	4440      	add	r0, r8
 80018d0:	46a9      	mov	r9, r5
 80018d2:	4540      	cmp	r0, r8
 80018d4:	41ad      	sbcs	r5, r5
 80018d6:	46c8      	mov	r8, r9
 80018d8:	426d      	negs	r5, r5
 80018da:	46ab      	mov	fp, r5
 80018dc:	42b2      	cmp	r2, r6
 80018de:	4192      	sbcs	r2, r2
 80018e0:	4589      	cmp	r9, r1
 80018e2:	4189      	sbcs	r1, r1
 80018e4:	44d0      	add	r8, sl
 80018e6:	44c3      	add	fp, r8
 80018e8:	4249      	negs	r1, r1
 80018ea:	4252      	negs	r2, r2
 80018ec:	430a      	orrs	r2, r1
 80018ee:	45ab      	cmp	fp, r5
 80018f0:	41ad      	sbcs	r5, r5
 80018f2:	45d0      	cmp	r8, sl
 80018f4:	4189      	sbcs	r1, r1
 80018f6:	426d      	negs	r5, r5
 80018f8:	4249      	negs	r1, r1
 80018fa:	430d      	orrs	r5, r1
 80018fc:	4659      	mov	r1, fp
 80018fe:	0c3f      	lsrs	r7, r7, #16
 8001900:	19d2      	adds	r2, r2, r7
 8001902:	1952      	adds	r2, r2, r5
 8001904:	4462      	add	r2, ip
 8001906:	0252      	lsls	r2, r2, #9
 8001908:	0dc9      	lsrs	r1, r1, #23
 800190a:	9d06      	ldr	r5, [sp, #24]
 800190c:	4311      	orrs	r1, r2
 800190e:	468a      	mov	sl, r1
 8001910:	0241      	lsls	r1, r0, #9
 8001912:	4329      	orrs	r1, r5
 8001914:	1e4d      	subs	r5, r1, #1
 8001916:	41a9      	sbcs	r1, r5
 8001918:	0dc0      	lsrs	r0, r0, #23
 800191a:	4308      	orrs	r0, r1
 800191c:	4659      	mov	r1, fp
 800191e:	0249      	lsls	r1, r1, #9
 8001920:	4308      	orrs	r0, r1
 8001922:	4680      	mov	r8, r0
 8001924:	01d2      	lsls	r2, r2, #7
 8001926:	d400      	bmi.n	800192a <__aeabi_dmul+0x252>
 8001928:	e173      	b.n	8001c12 <__aeabi_dmul+0x53a>
 800192a:	2201      	movs	r2, #1
 800192c:	0843      	lsrs	r3, r0, #1
 800192e:	4002      	ands	r2, r0
 8001930:	4313      	orrs	r3, r2
 8001932:	4652      	mov	r2, sl
 8001934:	07d2      	lsls	r2, r2, #31
 8001936:	4313      	orrs	r3, r2
 8001938:	4698      	mov	r8, r3
 800193a:	4653      	mov	r3, sl
 800193c:	085b      	lsrs	r3, r3, #1
 800193e:	469a      	mov	sl, r3
 8001940:	9b00      	ldr	r3, [sp, #0]
 8001942:	4699      	mov	r9, r3
 8001944:	4b48      	ldr	r3, [pc, #288]	@ (8001a68 <__aeabi_dmul+0x390>)
 8001946:	18e3      	adds	r3, r4, r3
 8001948:	2b00      	cmp	r3, #0
 800194a:	dc00      	bgt.n	800194e <__aeabi_dmul+0x276>
 800194c:	e0e5      	b.n	8001b1a <__aeabi_dmul+0x442>
 800194e:	4642      	mov	r2, r8
 8001950:	0752      	lsls	r2, r2, #29
 8001952:	d00a      	beq.n	800196a <__aeabi_dmul+0x292>
 8001954:	220f      	movs	r2, #15
 8001956:	4641      	mov	r1, r8
 8001958:	400a      	ands	r2, r1
 800195a:	2a04      	cmp	r2, #4
 800195c:	d005      	beq.n	800196a <__aeabi_dmul+0x292>
 800195e:	3104      	adds	r1, #4
 8001960:	4541      	cmp	r1, r8
 8001962:	4192      	sbcs	r2, r2
 8001964:	4688      	mov	r8, r1
 8001966:	4252      	negs	r2, r2
 8001968:	4492      	add	sl, r2
 800196a:	4652      	mov	r2, sl
 800196c:	01d2      	lsls	r2, r2, #7
 800196e:	d506      	bpl.n	800197e <__aeabi_dmul+0x2a6>
 8001970:	4652      	mov	r2, sl
 8001972:	4b3e      	ldr	r3, [pc, #248]	@ (8001a6c <__aeabi_dmul+0x394>)
 8001974:	401a      	ands	r2, r3
 8001976:	2380      	movs	r3, #128	@ 0x80
 8001978:	4692      	mov	sl, r2
 800197a:	00db      	lsls	r3, r3, #3
 800197c:	18e3      	adds	r3, r4, r3
 800197e:	4a3c      	ldr	r2, [pc, #240]	@ (8001a70 <__aeabi_dmul+0x398>)
 8001980:	4293      	cmp	r3, r2
 8001982:	dd00      	ble.n	8001986 <__aeabi_dmul+0x2ae>
 8001984:	e09d      	b.n	8001ac2 <__aeabi_dmul+0x3ea>
 8001986:	4642      	mov	r2, r8
 8001988:	08d1      	lsrs	r1, r2, #3
 800198a:	4652      	mov	r2, sl
 800198c:	0752      	lsls	r2, r2, #29
 800198e:	430a      	orrs	r2, r1
 8001990:	4651      	mov	r1, sl
 8001992:	055b      	lsls	r3, r3, #21
 8001994:	024c      	lsls	r4, r1, #9
 8001996:	0b24      	lsrs	r4, r4, #12
 8001998:	0d5b      	lsrs	r3, r3, #21
 800199a:	e019      	b.n	80019d0 <__aeabi_dmul+0x2f8>
 800199c:	4652      	mov	r2, sl
 800199e:	4302      	orrs	r2, r0
 80019a0:	4690      	mov	r8, r2
 80019a2:	d000      	beq.n	80019a6 <__aeabi_dmul+0x2ce>
 80019a4:	e0b3      	b.n	8001b0e <__aeabi_dmul+0x436>
 80019a6:	001c      	movs	r4, r3
 80019a8:	2302      	movs	r3, #2
 80019aa:	4692      	mov	sl, r2
 80019ac:	2508      	movs	r5, #8
 80019ae:	9303      	str	r3, [sp, #12]
 80019b0:	e6b8      	b.n	8001724 <__aeabi_dmul+0x4c>
 80019b2:	9b00      	ldr	r3, [sp, #0]
 80019b4:	4699      	mov	r9, r3
 80019b6:	9b03      	ldr	r3, [sp, #12]
 80019b8:	2b02      	cmp	r3, #2
 80019ba:	d100      	bne.n	80019be <__aeabi_dmul+0x2e6>
 80019bc:	e081      	b.n	8001ac2 <__aeabi_dmul+0x3ea>
 80019be:	2b03      	cmp	r3, #3
 80019c0:	d100      	bne.n	80019c4 <__aeabi_dmul+0x2ec>
 80019c2:	e0f5      	b.n	8001bb0 <__aeabi_dmul+0x4d8>
 80019c4:	9b03      	ldr	r3, [sp, #12]
 80019c6:	2b01      	cmp	r3, #1
 80019c8:	d1bc      	bne.n	8001944 <__aeabi_dmul+0x26c>
 80019ca:	2300      	movs	r3, #0
 80019cc:	2400      	movs	r4, #0
 80019ce:	2200      	movs	r2, #0
 80019d0:	0010      	movs	r0, r2
 80019d2:	464a      	mov	r2, r9
 80019d4:	051b      	lsls	r3, r3, #20
 80019d6:	4323      	orrs	r3, r4
 80019d8:	07d2      	lsls	r2, r2, #31
 80019da:	4313      	orrs	r3, r2
 80019dc:	0019      	movs	r1, r3
 80019de:	b009      	add	sp, #36	@ 0x24
 80019e0:	bcf0      	pop	{r4, r5, r6, r7}
 80019e2:	46bb      	mov	fp, r7
 80019e4:	46b2      	mov	sl, r6
 80019e6:	46a9      	mov	r9, r5
 80019e8:	46a0      	mov	r8, r4
 80019ea:	bdf0      	pop	{r4, r5, r6, r7, pc}
 80019ec:	465b      	mov	r3, fp
 80019ee:	9e00      	ldr	r6, [sp, #0]
 80019f0:	431e      	orrs	r6, r3
 80019f2:	4b1b      	ldr	r3, [pc, #108]	@ (8001a60 <__aeabi_dmul+0x388>)
 80019f4:	18e3      	adds	r3, r4, r3
 80019f6:	2e00      	cmp	r6, #0
 80019f8:	d100      	bne.n	80019fc <__aeabi_dmul+0x324>
 80019fa:	e081      	b.n	8001b00 <__aeabi_dmul+0x428>
 80019fc:	2203      	movs	r2, #3
 80019fe:	464e      	mov	r6, r9
 8001a00:	4315      	orrs	r5, r2
 8001a02:	9a04      	ldr	r2, [sp, #16]
 8001a04:	4056      	eors	r6, r2
 8001a06:	b2f2      	uxtb	r2, r6
 8001a08:	9200      	str	r2, [sp, #0]
 8001a0a:	2280      	movs	r2, #128	@ 0x80
 8001a0c:	0112      	lsls	r2, r2, #4
 8001a0e:	4694      	mov	ip, r2
 8001a10:	4464      	add	r4, ip
 8001a12:	2d0a      	cmp	r5, #10
 8001a14:	dd00      	ble.n	8001a18 <__aeabi_dmul+0x340>
 8001a16:	e0b7      	b.n	8001b88 <__aeabi_dmul+0x4b0>
 8001a18:	2103      	movs	r1, #3
 8001a1a:	e6ad      	b.n	8001778 <__aeabi_dmul+0xa0>
 8001a1c:	465b      	mov	r3, fp
 8001a1e:	9a00      	ldr	r2, [sp, #0]
 8001a20:	4313      	orrs	r3, r2
 8001a22:	d065      	beq.n	8001af0 <__aeabi_dmul+0x418>
 8001a24:	465b      	mov	r3, fp
 8001a26:	2b00      	cmp	r3, #0
 8001a28:	d100      	bne.n	8001a2c <__aeabi_dmul+0x354>
 8001a2a:	e0e2      	b.n	8001bf2 <__aeabi_dmul+0x51a>
 8001a2c:	4658      	mov	r0, fp
 8001a2e:	f000 f9ed 	bl	8001e0c <__clzsi2>
 8001a32:	0002      	movs	r2, r0
 8001a34:	0003      	movs	r3, r0
 8001a36:	3a0b      	subs	r2, #11
 8001a38:	271d      	movs	r7, #29
 8001a3a:	9e00      	ldr	r6, [sp, #0]
 8001a3c:	1aba      	subs	r2, r7, r2
 8001a3e:	0019      	movs	r1, r3
 8001a40:	4658      	mov	r0, fp
 8001a42:	40d6      	lsrs	r6, r2
 8001a44:	3908      	subs	r1, #8
 8001a46:	4088      	lsls	r0, r1
 8001a48:	0032      	movs	r2, r6
 8001a4a:	4302      	orrs	r2, r0
 8001a4c:	9800      	ldr	r0, [sp, #0]
 8001a4e:	4693      	mov	fp, r2
 8001a50:	4088      	lsls	r0, r1
 8001a52:	4a08      	ldr	r2, [pc, #32]	@ (8001a74 <__aeabi_dmul+0x39c>)
 8001a54:	1ae3      	subs	r3, r4, r3
 8001a56:	4694      	mov	ip, r2
 8001a58:	2100      	movs	r1, #0
 8001a5a:	4463      	add	r3, ip
 8001a5c:	e680      	b.n	8001760 <__aeabi_dmul+0x88>
 8001a5e:	46c0      	nop			@ (mov r8, r8)
 8001a60:	000007ff 	.word	0x000007ff
 8001a64:	fffffc01 	.word	0xfffffc01
 8001a68:	000003ff 	.word	0x000003ff
 8001a6c:	feffffff 	.word	0xfeffffff
 8001a70:	000007fe 	.word	0x000007fe
 8001a74:	fffffc0d 	.word	0xfffffc0d
 8001a78:	4653      	mov	r3, sl
 8001a7a:	4303      	orrs	r3, r0
 8001a7c:	4698      	mov	r8, r3
 8001a7e:	d030      	beq.n	8001ae2 <__aeabi_dmul+0x40a>
 8001a80:	4653      	mov	r3, sl
 8001a82:	2b00      	cmp	r3, #0
 8001a84:	d100      	bne.n	8001a88 <__aeabi_dmul+0x3b0>
 8001a86:	e0a2      	b.n	8001bce <__aeabi_dmul+0x4f6>
 8001a88:	4650      	mov	r0, sl
 8001a8a:	f000 f9bf 	bl	8001e0c <__clzsi2>
 8001a8e:	230b      	movs	r3, #11
 8001a90:	425b      	negs	r3, r3
 8001a92:	469c      	mov	ip, r3
 8001a94:	0002      	movs	r2, r0
 8001a96:	4484      	add	ip, r0
 8001a98:	4666      	mov	r6, ip
 8001a9a:	231d      	movs	r3, #29
 8001a9c:	1b9b      	subs	r3, r3, r6
 8001a9e:	0026      	movs	r6, r4
 8001aa0:	0011      	movs	r1, r2
 8001aa2:	4650      	mov	r0, sl
 8001aa4:	40de      	lsrs	r6, r3
 8001aa6:	3908      	subs	r1, #8
 8001aa8:	4088      	lsls	r0, r1
 8001aaa:	0033      	movs	r3, r6
 8001aac:	4303      	orrs	r3, r0
 8001aae:	469a      	mov	sl, r3
 8001ab0:	0023      	movs	r3, r4
 8001ab2:	408b      	lsls	r3, r1
 8001ab4:	4698      	mov	r8, r3
 8001ab6:	2300      	movs	r3, #0
 8001ab8:	4c69      	ldr	r4, [pc, #420]	@ (8001c60 <__aeabi_dmul+0x588>)
 8001aba:	2500      	movs	r5, #0
 8001abc:	1aa4      	subs	r4, r4, r2
 8001abe:	9303      	str	r3, [sp, #12]
 8001ac0:	e630      	b.n	8001724 <__aeabi_dmul+0x4c>
 8001ac2:	2400      	movs	r4, #0
 8001ac4:	2200      	movs	r2, #0
 8001ac6:	4b67      	ldr	r3, [pc, #412]	@ (8001c64 <__aeabi_dmul+0x58c>)
 8001ac8:	e782      	b.n	80019d0 <__aeabi_dmul+0x2f8>
 8001aca:	3d01      	subs	r5, #1
 8001acc:	2d01      	cmp	r5, #1
 8001ace:	d900      	bls.n	8001ad2 <__aeabi_dmul+0x3fa>
 8001ad0:	e664      	b.n	800179c <__aeabi_dmul+0xc4>
 8001ad2:	9b00      	ldr	r3, [sp, #0]
 8001ad4:	4699      	mov	r9, r3
 8001ad6:	2902      	cmp	r1, #2
 8001ad8:	d0f3      	beq.n	8001ac2 <__aeabi_dmul+0x3ea>
 8001ada:	46da      	mov	sl, fp
 8001adc:	4680      	mov	r8, r0
 8001ade:	9103      	str	r1, [sp, #12]
 8001ae0:	e770      	b.n	80019c4 <__aeabi_dmul+0x2ec>
 8001ae2:	2300      	movs	r3, #0
 8001ae4:	469a      	mov	sl, r3
 8001ae6:	3301      	adds	r3, #1
 8001ae8:	2504      	movs	r5, #4
 8001aea:	2400      	movs	r4, #0
 8001aec:	9303      	str	r3, [sp, #12]
 8001aee:	e619      	b.n	8001724 <__aeabi_dmul+0x4c>
 8001af0:	2200      	movs	r2, #0
 8001af2:	3301      	adds	r3, #1
 8001af4:	431d      	orrs	r5, r3
 8001af6:	4693      	mov	fp, r2
 8001af8:	0023      	movs	r3, r4
 8001afa:	2000      	movs	r0, #0
 8001afc:	2101      	movs	r1, #1
 8001afe:	e62f      	b.n	8001760 <__aeabi_dmul+0x88>
 8001b00:	2202      	movs	r2, #2
 8001b02:	4315      	orrs	r5, r2
 8001b04:	2200      	movs	r2, #0
 8001b06:	2000      	movs	r0, #0
 8001b08:	4693      	mov	fp, r2
 8001b0a:	2102      	movs	r1, #2
 8001b0c:	e628      	b.n	8001760 <__aeabi_dmul+0x88>
 8001b0e:	001c      	movs	r4, r3
 8001b10:	2303      	movs	r3, #3
 8001b12:	4680      	mov	r8, r0
 8001b14:	250c      	movs	r5, #12
 8001b16:	9303      	str	r3, [sp, #12]
 8001b18:	e604      	b.n	8001724 <__aeabi_dmul+0x4c>
 8001b1a:	2101      	movs	r1, #1
 8001b1c:	1ac9      	subs	r1, r1, r3
 8001b1e:	2938      	cmp	r1, #56	@ 0x38
 8001b20:	dd00      	ble.n	8001b24 <__aeabi_dmul+0x44c>
 8001b22:	e752      	b.n	80019ca <__aeabi_dmul+0x2f2>
 8001b24:	291f      	cmp	r1, #31
 8001b26:	dd78      	ble.n	8001c1a <__aeabi_dmul+0x542>
 8001b28:	221f      	movs	r2, #31
 8001b2a:	4252      	negs	r2, r2
 8001b2c:	1ad3      	subs	r3, r2, r3
 8001b2e:	4652      	mov	r2, sl
 8001b30:	40da      	lsrs	r2, r3
 8001b32:	0013      	movs	r3, r2
 8001b34:	2920      	cmp	r1, #32
 8001b36:	d007      	beq.n	8001b48 <__aeabi_dmul+0x470>
 8001b38:	4a4b      	ldr	r2, [pc, #300]	@ (8001c68 <__aeabi_dmul+0x590>)
 8001b3a:	4641      	mov	r1, r8
 8001b3c:	4694      	mov	ip, r2
 8001b3e:	4652      	mov	r2, sl
 8001b40:	4464      	add	r4, ip
 8001b42:	40a2      	lsls	r2, r4
 8001b44:	4311      	orrs	r1, r2
 8001b46:	4688      	mov	r8, r1
 8001b48:	4642      	mov	r2, r8
 8001b4a:	1e51      	subs	r1, r2, #1
 8001b4c:	418a      	sbcs	r2, r1
 8001b4e:	431a      	orrs	r2, r3
 8001b50:	2307      	movs	r3, #7
 8001b52:	0019      	movs	r1, r3
 8001b54:	2400      	movs	r4, #0
 8001b56:	4011      	ands	r1, r2
 8001b58:	4213      	tst	r3, r2
 8001b5a:	d00b      	beq.n	8001b74 <__aeabi_dmul+0x49c>
 8001b5c:	230f      	movs	r3, #15
 8001b5e:	4013      	ands	r3, r2
 8001b60:	2b04      	cmp	r3, #4
 8001b62:	d07b      	beq.n	8001c5c <__aeabi_dmul+0x584>
 8001b64:	1d13      	adds	r3, r2, #4
 8001b66:	4293      	cmp	r3, r2
 8001b68:	41a4      	sbcs	r4, r4
 8001b6a:	001a      	movs	r2, r3
 8001b6c:	4264      	negs	r4, r4
 8001b6e:	0761      	lsls	r1, r4, #29
 8001b70:	0264      	lsls	r4, r4, #9
 8001b72:	0b24      	lsrs	r4, r4, #12
 8001b74:	08d2      	lsrs	r2, r2, #3
 8001b76:	2300      	movs	r3, #0
 8001b78:	430a      	orrs	r2, r1
 8001b7a:	e729      	b.n	80019d0 <__aeabi_dmul+0x2f8>
 8001b7c:	9b04      	ldr	r3, [sp, #16]
 8001b7e:	46da      	mov	sl, fp
 8001b80:	4699      	mov	r9, r3
 8001b82:	4680      	mov	r8, r0
 8001b84:	9103      	str	r1, [sp, #12]
 8001b86:	e716      	b.n	80019b6 <__aeabi_dmul+0x2de>
 8001b88:	2d0f      	cmp	r5, #15
 8001b8a:	d10d      	bne.n	8001ba8 <__aeabi_dmul+0x4d0>
 8001b8c:	2480      	movs	r4, #128	@ 0x80
 8001b8e:	4653      	mov	r3, sl
 8001b90:	0324      	lsls	r4, r4, #12
 8001b92:	4223      	tst	r3, r4
 8001b94:	d00c      	beq.n	8001bb0 <__aeabi_dmul+0x4d8>
 8001b96:	465b      	mov	r3, fp
 8001b98:	4223      	tst	r3, r4
 8001b9a:	d109      	bne.n	8001bb0 <__aeabi_dmul+0x4d8>
 8001b9c:	431c      	orrs	r4, r3
 8001b9e:	9b04      	ldr	r3, [sp, #16]
 8001ba0:	0002      	movs	r2, r0
 8001ba2:	4699      	mov	r9, r3
 8001ba4:	4b2f      	ldr	r3, [pc, #188]	@ (8001c64 <__aeabi_dmul+0x58c>)
 8001ba6:	e713      	b.n	80019d0 <__aeabi_dmul+0x2f8>
 8001ba8:	9b04      	ldr	r3, [sp, #16]
 8001baa:	46da      	mov	sl, fp
 8001bac:	4699      	mov	r9, r3
 8001bae:	4680      	mov	r8, r0
 8001bb0:	2480      	movs	r4, #128	@ 0x80
 8001bb2:	4653      	mov	r3, sl
 8001bb4:	0324      	lsls	r4, r4, #12
 8001bb6:	431c      	orrs	r4, r3
 8001bb8:	0324      	lsls	r4, r4, #12
 8001bba:	4642      	mov	r2, r8
 8001bbc:	4b29      	ldr	r3, [pc, #164]	@ (8001c64 <__aeabi_dmul+0x58c>)
 8001bbe:	0b24      	lsrs	r4, r4, #12
 8001bc0:	e706      	b.n	80019d0 <__aeabi_dmul+0x2f8>
 8001bc2:	2300      	movs	r3, #0
 8001bc4:	2480      	movs	r4, #128	@ 0x80
 8001bc6:	4699      	mov	r9, r3
 8001bc8:	0324      	lsls	r4, r4, #12
 8001bca:	4b26      	ldr	r3, [pc, #152]	@ (8001c64 <__aeabi_dmul+0x58c>)
 8001bcc:	e700      	b.n	80019d0 <__aeabi_dmul+0x2f8>
 8001bce:	f000 f91d 	bl	8001e0c <__clzsi2>
 8001bd2:	2315      	movs	r3, #21
 8001bd4:	469c      	mov	ip, r3
 8001bd6:	4484      	add	ip, r0
 8001bd8:	0002      	movs	r2, r0
 8001bda:	4663      	mov	r3, ip
 8001bdc:	3220      	adds	r2, #32
 8001bde:	2b1c      	cmp	r3, #28
 8001be0:	dc00      	bgt.n	8001be4 <__aeabi_dmul+0x50c>
 8001be2:	e759      	b.n	8001a98 <__aeabi_dmul+0x3c0>
 8001be4:	2300      	movs	r3, #0
 8001be6:	4698      	mov	r8, r3
 8001be8:	0023      	movs	r3, r4
 8001bea:	3808      	subs	r0, #8
 8001bec:	4083      	lsls	r3, r0
 8001bee:	469a      	mov	sl, r3
 8001bf0:	e761      	b.n	8001ab6 <__aeabi_dmul+0x3de>
 8001bf2:	f000 f90b 	bl	8001e0c <__clzsi2>
 8001bf6:	0002      	movs	r2, r0
 8001bf8:	0003      	movs	r3, r0
 8001bfa:	3215      	adds	r2, #21
 8001bfc:	3320      	adds	r3, #32
 8001bfe:	2a1c      	cmp	r2, #28
 8001c00:	dc00      	bgt.n	8001c04 <__aeabi_dmul+0x52c>
 8001c02:	e719      	b.n	8001a38 <__aeabi_dmul+0x360>
 8001c04:	0002      	movs	r2, r0
 8001c06:	9900      	ldr	r1, [sp, #0]
 8001c08:	3a08      	subs	r2, #8
 8001c0a:	4091      	lsls	r1, r2
 8001c0c:	2000      	movs	r0, #0
 8001c0e:	468b      	mov	fp, r1
 8001c10:	e71f      	b.n	8001a52 <__aeabi_dmul+0x37a>
 8001c12:	9a00      	ldr	r2, [sp, #0]
 8001c14:	001c      	movs	r4, r3
 8001c16:	4691      	mov	r9, r2
 8001c18:	e694      	b.n	8001944 <__aeabi_dmul+0x26c>
 8001c1a:	4b14      	ldr	r3, [pc, #80]	@ (8001c6c <__aeabi_dmul+0x594>)
 8001c1c:	4652      	mov	r2, sl
 8001c1e:	469c      	mov	ip, r3
 8001c20:	4643      	mov	r3, r8
 8001c22:	4464      	add	r4, ip
 8001c24:	40a2      	lsls	r2, r4
 8001c26:	40cb      	lsrs	r3, r1
 8001c28:	431a      	orrs	r2, r3
 8001c2a:	4643      	mov	r3, r8
 8001c2c:	40a3      	lsls	r3, r4
 8001c2e:	1e58      	subs	r0, r3, #1
 8001c30:	4183      	sbcs	r3, r0
 8001c32:	4654      	mov	r4, sl
 8001c34:	431a      	orrs	r2, r3
 8001c36:	40cc      	lsrs	r4, r1
 8001c38:	0753      	lsls	r3, r2, #29
 8001c3a:	d009      	beq.n	8001c50 <__aeabi_dmul+0x578>
 8001c3c:	230f      	movs	r3, #15
 8001c3e:	4013      	ands	r3, r2
 8001c40:	2b04      	cmp	r3, #4
 8001c42:	d005      	beq.n	8001c50 <__aeabi_dmul+0x578>
 8001c44:	1d13      	adds	r3, r2, #4
 8001c46:	4293      	cmp	r3, r2
 8001c48:	4192      	sbcs	r2, r2
 8001c4a:	4252      	negs	r2, r2
 8001c4c:	18a4      	adds	r4, r4, r2
 8001c4e:	001a      	movs	r2, r3
 8001c50:	0223      	lsls	r3, r4, #8
 8001c52:	d58c      	bpl.n	8001b6e <__aeabi_dmul+0x496>
 8001c54:	2301      	movs	r3, #1
 8001c56:	2400      	movs	r4, #0
 8001c58:	2200      	movs	r2, #0
 8001c5a:	e6b9      	b.n	80019d0 <__aeabi_dmul+0x2f8>
 8001c5c:	2400      	movs	r4, #0
 8001c5e:	e786      	b.n	8001b6e <__aeabi_dmul+0x496>
 8001c60:	fffffc0d 	.word	0xfffffc0d
 8001c64:	000007ff 	.word	0x000007ff
 8001c68:	0000043e 	.word	0x0000043e
 8001c6c:	0000041e 	.word	0x0000041e

08001c70 <__aeabi_f2d>:
 8001c70:	b570      	push	{r4, r5, r6, lr}
 8001c72:	0242      	lsls	r2, r0, #9
 8001c74:	0043      	lsls	r3, r0, #1
 8001c76:	0fc4      	lsrs	r4, r0, #31
 8001c78:	20fe      	movs	r0, #254	@ 0xfe
 8001c7a:	0e1b      	lsrs	r3, r3, #24
 8001c7c:	1c59      	adds	r1, r3, #1
 8001c7e:	0a55      	lsrs	r5, r2, #9
 8001c80:	4208      	tst	r0, r1
 8001c82:	d00c      	beq.n	8001c9e <__aeabi_f2d+0x2e>
 8001c84:	21e0      	movs	r1, #224	@ 0xe0
 8001c86:	0089      	lsls	r1, r1, #2
 8001c88:	468c      	mov	ip, r1
 8001c8a:	076d      	lsls	r5, r5, #29
 8001c8c:	0b12      	lsrs	r2, r2, #12
 8001c8e:	4463      	add	r3, ip
 8001c90:	051b      	lsls	r3, r3, #20
 8001c92:	4313      	orrs	r3, r2
 8001c94:	07e4      	lsls	r4, r4, #31
 8001c96:	4323      	orrs	r3, r4
 8001c98:	0028      	movs	r0, r5
 8001c9a:	0019      	movs	r1, r3
 8001c9c:	bd70      	pop	{r4, r5, r6, pc}
 8001c9e:	2b00      	cmp	r3, #0
 8001ca0:	d114      	bne.n	8001ccc <__aeabi_f2d+0x5c>
 8001ca2:	2d00      	cmp	r5, #0
 8001ca4:	d01b      	beq.n	8001cde <__aeabi_f2d+0x6e>
 8001ca6:	0028      	movs	r0, r5
 8001ca8:	f000 f8b0 	bl	8001e0c <__clzsi2>
 8001cac:	280a      	cmp	r0, #10
 8001cae:	dc1c      	bgt.n	8001cea <__aeabi_f2d+0x7a>
 8001cb0:	230b      	movs	r3, #11
 8001cb2:	002a      	movs	r2, r5
 8001cb4:	1a1b      	subs	r3, r3, r0
 8001cb6:	40da      	lsrs	r2, r3
 8001cb8:	0003      	movs	r3, r0
 8001cba:	3315      	adds	r3, #21
 8001cbc:	409d      	lsls	r5, r3
 8001cbe:	4b0e      	ldr	r3, [pc, #56]	@ (8001cf8 <__aeabi_f2d+0x88>)
 8001cc0:	0312      	lsls	r2, r2, #12
 8001cc2:	1a1b      	subs	r3, r3, r0
 8001cc4:	055b      	lsls	r3, r3, #21
 8001cc6:	0b12      	lsrs	r2, r2, #12
 8001cc8:	0d5b      	lsrs	r3, r3, #21
 8001cca:	e7e1      	b.n	8001c90 <__aeabi_f2d+0x20>
 8001ccc:	2d00      	cmp	r5, #0
 8001cce:	d009      	beq.n	8001ce4 <__aeabi_f2d+0x74>
 8001cd0:	0b13      	lsrs	r3, r2, #12
 8001cd2:	2280      	movs	r2, #128	@ 0x80
 8001cd4:	0312      	lsls	r2, r2, #12
 8001cd6:	431a      	orrs	r2, r3
 8001cd8:	076d      	lsls	r5, r5, #29
 8001cda:	4b08      	ldr	r3, [pc, #32]	@ (8001cfc <__aeabi_f2d+0x8c>)
 8001cdc:	e7d8      	b.n	8001c90 <__aeabi_f2d+0x20>
 8001cde:	2300      	movs	r3, #0
 8001ce0:	2200      	movs	r2, #0
 8001ce2:	e7d5      	b.n	8001c90 <__aeabi_f2d+0x20>
 8001ce4:	2200      	movs	r2, #0
 8001ce6:	4b05      	ldr	r3, [pc, #20]	@ (8001cfc <__aeabi_f2d+0x8c>)
 8001ce8:	e7d2      	b.n	8001c90 <__aeabi_f2d+0x20>
 8001cea:	0003      	movs	r3, r0
 8001cec:	002a      	movs	r2, r5
 8001cee:	3b0b      	subs	r3, #11
 8001cf0:	409a      	lsls	r2, r3
 8001cf2:	2500      	movs	r5, #0
 8001cf4:	e7e3      	b.n	8001cbe <__aeabi_f2d+0x4e>
 8001cf6:	46c0      	nop			@ (mov r8, r8)
 8001cf8:	00000389 	.word	0x00000389
 8001cfc:	000007ff 	.word	0x000007ff

08001d00 <__aeabi_d2f>:
 8001d00:	b5f0      	push	{r4, r5, r6, r7, lr}
 8001d02:	004b      	lsls	r3, r1, #1
 8001d04:	030f      	lsls	r7, r1, #12
 8001d06:	0d5b      	lsrs	r3, r3, #21
 8001d08:	4c3c      	ldr	r4, [pc, #240]	@ (8001dfc <__aeabi_d2f+0xfc>)
 8001d0a:	0f45      	lsrs	r5, r0, #29
 8001d0c:	b083      	sub	sp, #12
 8001d0e:	0a7f      	lsrs	r7, r7, #9
 8001d10:	1c5e      	adds	r6, r3, #1
 8001d12:	432f      	orrs	r7, r5
 8001d14:	9000      	str	r0, [sp, #0]
 8001d16:	9101      	str	r1, [sp, #4]
 8001d18:	0fca      	lsrs	r2, r1, #31
 8001d1a:	00c5      	lsls	r5, r0, #3
 8001d1c:	4226      	tst	r6, r4
 8001d1e:	d00b      	beq.n	8001d38 <__aeabi_d2f+0x38>
 8001d20:	4937      	ldr	r1, [pc, #220]	@ (8001e00 <__aeabi_d2f+0x100>)
 8001d22:	185c      	adds	r4, r3, r1
 8001d24:	2cfe      	cmp	r4, #254	@ 0xfe
 8001d26:	dd13      	ble.n	8001d50 <__aeabi_d2f+0x50>
 8001d28:	20ff      	movs	r0, #255	@ 0xff
 8001d2a:	2300      	movs	r3, #0
 8001d2c:	05c0      	lsls	r0, r0, #23
 8001d2e:	4318      	orrs	r0, r3
 8001d30:	07d2      	lsls	r2, r2, #31
 8001d32:	4310      	orrs	r0, r2
 8001d34:	b003      	add	sp, #12
 8001d36:	bdf0      	pop	{r4, r5, r6, r7, pc}
 8001d38:	433d      	orrs	r5, r7
 8001d3a:	2b00      	cmp	r3, #0
 8001d3c:	d101      	bne.n	8001d42 <__aeabi_d2f+0x42>
 8001d3e:	2000      	movs	r0, #0
 8001d40:	e7f4      	b.n	8001d2c <__aeabi_d2f+0x2c>
 8001d42:	2d00      	cmp	r5, #0
 8001d44:	d0f0      	beq.n	8001d28 <__aeabi_d2f+0x28>
 8001d46:	2380      	movs	r3, #128	@ 0x80
 8001d48:	03db      	lsls	r3, r3, #15
 8001d4a:	20ff      	movs	r0, #255	@ 0xff
 8001d4c:	433b      	orrs	r3, r7
 8001d4e:	e7ed      	b.n	8001d2c <__aeabi_d2f+0x2c>
 8001d50:	2c00      	cmp	r4, #0
 8001d52:	dd14      	ble.n	8001d7e <__aeabi_d2f+0x7e>
 8001d54:	9b00      	ldr	r3, [sp, #0]
 8001d56:	00ff      	lsls	r7, r7, #3
 8001d58:	019b      	lsls	r3, r3, #6
 8001d5a:	1e58      	subs	r0, r3, #1
 8001d5c:	4183      	sbcs	r3, r0
 8001d5e:	0f69      	lsrs	r1, r5, #29
 8001d60:	433b      	orrs	r3, r7
 8001d62:	430b      	orrs	r3, r1
 8001d64:	0759      	lsls	r1, r3, #29
 8001d66:	d046      	beq.n	8001df6 <__aeabi_d2f+0xf6>
 8001d68:	210f      	movs	r1, #15
 8001d6a:	4019      	ands	r1, r3
 8001d6c:	2904      	cmp	r1, #4
 8001d6e:	d02a      	beq.n	8001dc6 <__aeabi_d2f+0xc6>
 8001d70:	3304      	adds	r3, #4
 8001d72:	0159      	lsls	r1, r3, #5
 8001d74:	d527      	bpl.n	8001dc6 <__aeabi_d2f+0xc6>
 8001d76:	3401      	adds	r4, #1
 8001d78:	2300      	movs	r3, #0
 8001d7a:	b2e0      	uxtb	r0, r4
 8001d7c:	e7d6      	b.n	8001d2c <__aeabi_d2f+0x2c>
 8001d7e:	0021      	movs	r1, r4
 8001d80:	3117      	adds	r1, #23
 8001d82:	db24      	blt.n	8001dce <__aeabi_d2f+0xce>
 8001d84:	2180      	movs	r1, #128	@ 0x80
 8001d86:	201e      	movs	r0, #30
 8001d88:	0409      	lsls	r1, r1, #16
 8001d8a:	4339      	orrs	r1, r7
 8001d8c:	1b00      	subs	r0, r0, r4
 8001d8e:	281f      	cmp	r0, #31
 8001d90:	dd20      	ble.n	8001dd4 <__aeabi_d2f+0xd4>
 8001d92:	2602      	movs	r6, #2
 8001d94:	4276      	negs	r6, r6
 8001d96:	1b34      	subs	r4, r6, r4
 8001d98:	000e      	movs	r6, r1
 8001d9a:	40e6      	lsrs	r6, r4
 8001d9c:	0034      	movs	r4, r6
 8001d9e:	2820      	cmp	r0, #32
 8001da0:	d004      	beq.n	8001dac <__aeabi_d2f+0xac>
 8001da2:	4818      	ldr	r0, [pc, #96]	@ (8001e04 <__aeabi_d2f+0x104>)
 8001da4:	4684      	mov	ip, r0
 8001da6:	4463      	add	r3, ip
 8001da8:	4099      	lsls	r1, r3
 8001daa:	430d      	orrs	r5, r1
 8001dac:	002b      	movs	r3, r5
 8001dae:	1e59      	subs	r1, r3, #1
 8001db0:	418b      	sbcs	r3, r1
 8001db2:	4323      	orrs	r3, r4
 8001db4:	0759      	lsls	r1, r3, #29
 8001db6:	d01a      	beq.n	8001dee <__aeabi_d2f+0xee>
 8001db8:	210f      	movs	r1, #15
 8001dba:	2400      	movs	r4, #0
 8001dbc:	4019      	ands	r1, r3
 8001dbe:	2904      	cmp	r1, #4
 8001dc0:	d001      	beq.n	8001dc6 <__aeabi_d2f+0xc6>
 8001dc2:	2400      	movs	r4, #0
 8001dc4:	3304      	adds	r3, #4
 8001dc6:	019b      	lsls	r3, r3, #6
 8001dc8:	0a5b      	lsrs	r3, r3, #9
 8001dca:	b2e0      	uxtb	r0, r4
 8001dcc:	e7ae      	b.n	8001d2c <__aeabi_d2f+0x2c>
 8001dce:	2000      	movs	r0, #0
 8001dd0:	2300      	movs	r3, #0
 8001dd2:	e7ab      	b.n	8001d2c <__aeabi_d2f+0x2c>
 8001dd4:	4c0c      	ldr	r4, [pc, #48]	@ (8001e08 <__aeabi_d2f+0x108>)
 8001dd6:	191c      	adds	r4, r3, r4
 8001dd8:	002b      	movs	r3, r5
 8001dda:	40a5      	lsls	r5, r4
 8001ddc:	40c3      	lsrs	r3, r0
 8001dde:	40a1      	lsls	r1, r4
 8001de0:	1e68      	subs	r0, r5, #1
 8001de2:	4185      	sbcs	r5, r0
 8001de4:	4329      	orrs	r1, r5
 8001de6:	430b      	orrs	r3, r1
 8001de8:	2400      	movs	r4, #0
 8001dea:	0759      	lsls	r1, r3, #29
 8001dec:	d1bc      	bne.n	8001d68 <__aeabi_d2f+0x68>
 8001dee:	019b      	lsls	r3, r3, #6
 8001df0:	2000      	movs	r0, #0
 8001df2:	0a5b      	lsrs	r3, r3, #9
 8001df4:	e79a      	b.n	8001d2c <__aeabi_d2f+0x2c>
 8001df6:	08db      	lsrs	r3, r3, #3
 8001df8:	b2e0      	uxtb	r0, r4
 8001dfa:	e797      	b.n	8001d2c <__aeabi_d2f+0x2c>
 8001dfc:	000007fe 	.word	0x000007fe
 8001e00:	fffffc80 	.word	0xfffffc80
 8001e04:	fffffca2 	.word	0xfffffca2
 8001e08:	fffffc82 	.word	0xfffffc82

08001e0c <__clzsi2>:
 8001e0c:	211c      	movs	r1, #28
 8001e0e:	2301      	movs	r3, #1
 8001e10:	041b      	lsls	r3, r3, #16
 8001e12:	4298      	cmp	r0, r3
 8001e14:	d301      	bcc.n	8001e1a <__clzsi2+0xe>
 8001e16:	0c00      	lsrs	r0, r0, #16
 8001e18:	3910      	subs	r1, #16
 8001e1a:	0a1b      	lsrs	r3, r3, #8
 8001e1c:	4298      	cmp	r0, r3
 8001e1e:	d301      	bcc.n	8001e24 <__clzsi2+0x18>
 8001e20:	0a00      	lsrs	r0, r0, #8
 8001e22:	3908      	subs	r1, #8
 8001e24:	091b      	lsrs	r3, r3, #4
 8001e26:	4298      	cmp	r0, r3
 8001e28:	d301      	bcc.n	8001e2e <__clzsi2+0x22>
 8001e2a:	0900      	lsrs	r0, r0, #4
 8001e2c:	3904      	subs	r1, #4
 8001e2e:	a202      	add	r2, pc, #8	@ (adr r2, 8001e38 <__clzsi2+0x2c>)
 8001e30:	5c10      	ldrb	r0, [r2, r0]
 8001e32:	1840      	adds	r0, r0, r1
 8001e34:	4770      	bx	lr
 8001e36:	46c0      	nop			@ (mov r8, r8)
 8001e38:	02020304 	.word	0x02020304
 8001e3c:	01010101 	.word	0x01010101
	...

08001e48 <memset>:
 8001e48:	b5f0      	push	{r4, r5, r6, r7, lr}
 8001e4a:	0005      	movs	r5, r0
 8001e4c:	0783      	lsls	r3, r0, #30
 8001e4e:	d049      	beq.n	8001ee4 <memset+0x9c>
 8001e50:	1e54      	subs	r4, r2, #1
 8001e52:	2a00      	cmp	r2, #0
 8001e54:	d045      	beq.n	8001ee2 <memset+0x9a>
 8001e56:	0003      	movs	r3, r0
 8001e58:	2603      	movs	r6, #3
 8001e5a:	b2ca      	uxtb	r2, r1
 8001e5c:	e002      	b.n	8001e64 <memset+0x1c>
 8001e5e:	3501      	adds	r5, #1
 8001e60:	3c01      	subs	r4, #1
 8001e62:	d33e      	bcc.n	8001ee2 <memset+0x9a>
 8001e64:	3301      	adds	r3, #1
 8001e66:	702a      	strb	r2, [r5, #0]
 8001e68:	4233      	tst	r3, r6
 8001e6a:	d1f8      	bne.n	8001e5e <memset+0x16>
 8001e6c:	2c03      	cmp	r4, #3
 8001e6e:	d930      	bls.n	8001ed2 <memset+0x8a>
 8001e70:	22ff      	movs	r2, #255	@ 0xff
 8001e72:	400a      	ands	r2, r1
 8001e74:	0215      	lsls	r5, r2, #8
 8001e76:	18ad      	adds	r5, r5, r2
 8001e78:	042a      	lsls	r2, r5, #16
 8001e7a:	18ad      	adds	r5, r5, r2
 8001e7c:	2c0f      	cmp	r4, #15
 8001e7e:	d934      	bls.n	8001eea <memset+0xa2>
 8001e80:	0027      	movs	r7, r4
 8001e82:	3f10      	subs	r7, #16
 8001e84:	093f      	lsrs	r7, r7, #4
 8001e86:	013e      	lsls	r6, r7, #4
 8001e88:	46b4      	mov	ip, r6
 8001e8a:	001e      	movs	r6, r3
 8001e8c:	001a      	movs	r2, r3
 8001e8e:	3610      	adds	r6, #16
 8001e90:	4466      	add	r6, ip
 8001e92:	6015      	str	r5, [r2, #0]
 8001e94:	6055      	str	r5, [r2, #4]
 8001e96:	6095      	str	r5, [r2, #8]
 8001e98:	60d5      	str	r5, [r2, #12]
 8001e9a:	3210      	adds	r2, #16
 8001e9c:	4296      	cmp	r6, r2
 8001e9e:	d1f8      	bne.n	8001e92 <memset+0x4a>
 8001ea0:	3701      	adds	r7, #1
 8001ea2:	013f      	lsls	r7, r7, #4
 8001ea4:	19db      	adds	r3, r3, r7
 8001ea6:	270f      	movs	r7, #15
 8001ea8:	220c      	movs	r2, #12
 8001eaa:	4027      	ands	r7, r4
 8001eac:	4022      	ands	r2, r4
 8001eae:	003c      	movs	r4, r7
 8001eb0:	2a00      	cmp	r2, #0
 8001eb2:	d00e      	beq.n	8001ed2 <memset+0x8a>
 8001eb4:	1f3e      	subs	r6, r7, #4
 8001eb6:	08b6      	lsrs	r6, r6, #2
 8001eb8:	00b4      	lsls	r4, r6, #2
 8001eba:	46a4      	mov	ip, r4
 8001ebc:	001a      	movs	r2, r3
 8001ebe:	1d1c      	adds	r4, r3, #4
 8001ec0:	4464      	add	r4, ip
 8001ec2:	c220      	stmia	r2!, {r5}
 8001ec4:	42a2      	cmp	r2, r4
 8001ec6:	d1fc      	bne.n	8001ec2 <memset+0x7a>
 8001ec8:	2403      	movs	r4, #3
 8001eca:	3601      	adds	r6, #1
 8001ecc:	00b6      	lsls	r6, r6, #2
 8001ece:	199b      	adds	r3, r3, r6
 8001ed0:	403c      	ands	r4, r7
 8001ed2:	2c00      	cmp	r4, #0
 8001ed4:	d005      	beq.n	8001ee2 <memset+0x9a>
 8001ed6:	b2c9      	uxtb	r1, r1
 8001ed8:	191c      	adds	r4, r3, r4
 8001eda:	7019      	strb	r1, [r3, #0]
 8001edc:	3301      	adds	r3, #1
 8001ede:	429c      	cmp	r4, r3
 8001ee0:	d1fb      	bne.n	8001eda <memset+0x92>
 8001ee2:	bdf0      	pop	{r4, r5, r6, r7, pc}
 8001ee4:	0003      	movs	r3, r0
 8001ee6:	0014      	movs	r4, r2
 8001ee8:	e7c0      	b.n	8001e6c <memset+0x24>
 8001eea:	0027      	movs	r7, r4
 8001eec:	e7e2      	b.n	8001eb4 <memset+0x6c>
 8001eee:	46c0      	nop			@ (mov r8, r8)

08001ef0 <__libc_init_array>:
 8001ef0:	b570      	push	{r4, r5, r6, lr}
 8001ef2:	4b0d      	ldr	r3, [pc, #52]	@ (8001f28 <__libc_init_array+0x38>)
 8001ef4:	4d0d      	ldr	r5, [pc, #52]	@ (8001f2c <__libc_init_array+0x3c>)
 8001ef6:	1b5e      	subs	r6, r3, r5
 8001ef8:	10b6      	asrs	r6, r6, #2
 8001efa:	42ab      	cmp	r3, r5
 8001efc:	d005      	beq.n	8001f0a <__libc_init_array+0x1a>
 8001efe:	2400      	movs	r4, #0
 8001f00:	cd08      	ldmia	r5!, {r3}
 8001f02:	3401      	adds	r4, #1
 8001f04:	4798      	blx	r3
 8001f06:	42a6      	cmp	r6, r4
 8001f08:	d8fa      	bhi.n	8001f00 <__libc_init_array+0x10>
 8001f0a:	f000 fb49 	bl	80025a0 <_init>
 8001f0e:	4b08      	ldr	r3, [pc, #32]	@ (8001f30 <__libc_init_array+0x40>)
 8001f10:	4d08      	ldr	r5, [pc, #32]	@ (8001f34 <__libc_init_array+0x44>)
 8001f12:	1b5e      	subs	r6, r3, r5
 8001f14:	10b6      	asrs	r6, r6, #2
 8001f16:	42ab      	cmp	r3, r5
 8001f18:	d005      	beq.n	8001f26 <__libc_init_array+0x36>
 8001f1a:	2400      	movs	r4, #0
 8001f1c:	cd08      	ldmia	r5!, {r3}
 8001f1e:	3401      	adds	r4, #1
 8001f20:	4798      	blx	r3
 8001f22:	42a6      	cmp	r6, r4
 8001f24:	d8fa      	bhi.n	8001f1c <__libc_init_array+0x2c>
 8001f26:	bd70      	pop	{r4, r5, r6, pc}
	...

08001f38 <System_Clock_Init>:

/**
 * @brief  Initializes the STM32F030R8 clock
 * @retval None
 */
void System_Clock_Init(){
 8001f38:	b510      	push	{r4, lr}
  RCC_GetClocksFreq(&RCC_Clocks);
 8001f3a:	4c0c      	ldr	r4, [pc, #48]	@ (8001f6c <System_Clock_Init+0x34>)
 8001f3c:	0020      	movs	r0, r4
 8001f3e:	f7fe fddb 	bl	8000af8 <RCC_GetClocksFreq>
  SysTick_Config(RCC_Clocks.HCLK_Frequency / 1000);
 8001f42:	21fa      	movs	r1, #250	@ 0xfa
 8001f44:	6860      	ldr	r0, [r4, #4]
 8001f46:	0089      	lsls	r1, r1, #2
 8001f48:	f7fe fefe 	bl	8000d48 <__udivsi3>
    \param [in]  priority  Priority to set
 */
static __INLINE void NVIC_SetPriority(IRQn_Type IRQn, uint32_t priority)
{
  if(IRQn < 0) {
    SCB->SHP[_SHP_IDX(IRQn)] = (SCB->SHP[_SHP_IDX(IRQn)] & ~(0xFF << _BIT_SHIFT(IRQn))) |
 8001f4c:	21c0      	movs	r1, #192	@ 0xc0
 */
static __INLINE uint32_t SysTick_Config(uint32_t ticks)
{
  if (ticks > SysTick_LOAD_RELOAD_Msk)  return (1);            /* Reload value impossible */

  SysTick->LOAD  = (ticks & SysTick_LOAD_RELOAD_Msk) - 1;      /* set reload register */
 8001f4e:	4a08      	ldr	r2, [pc, #32]	@ (8001f70 <System_Clock_Init+0x38>)
 8001f50:	3801      	subs	r0, #1
 8001f52:	6050      	str	r0, [r2, #4]
    SCB->SHP[_SHP_IDX(IRQn)] = (SCB->SHP[_SHP_IDX(IRQn)] & ~(0xFF << _BIT_SHIFT(IRQn))) |
 8001f54:	4807      	ldr	r0, [pc, #28]	@ (8001f74 <System_Clock_Init+0x3c>)
 8001f56:	0609      	lsls	r1, r1, #24
 8001f58:	6a03      	ldr	r3, [r0, #32]
 8001f5a:	021b      	lsls	r3, r3, #8
 8001f5c:	0a1b      	lsrs	r3, r3, #8
 8001f5e:	430b      	orrs	r3, r1
 8001f60:	6203      	str	r3, [r0, #32]
  NVIC_SetPriority (SysTick_IRQn, (1<<__NVIC_PRIO_BITS) - 1);  /* set Priority for Cortex-M0 System Interrupts */
  SysTick->VAL   = 0;                                          /* Load the SysTick Counter Value */
 8001f62:	2300      	movs	r3, #0
 8001f64:	6093      	str	r3, [r2, #8]
  SysTick->CTRL  = SysTick_CTRL_CLKSOURCE_Msk |
 8001f66:	3307      	adds	r3, #7
 8001f68:	6013      	str	r3, [r2, #0]
}
 8001f6a:	bd10      	pop	{r4, pc}
 8001f6c:	20000008 	.word	0x20000008
 8001f70:	e000e010 	.word	0xe000e010
 8001f74:	e000ed00 	.word	0xe000ed00

08001f78 <Delay>:
* @brief  Inserts a delay time.
* @param  nTime: specifies the delay time length, in 1 ms.
* @retval None
*/
void Delay(__IO uint32_t nTime)
{
 8001f78:	b082      	sub	sp, #8
 8001f7a:	9001      	str	r0, [sp, #4]
  TimingDelay = nTime;
 8001f7c:	9a01      	ldr	r2, [sp, #4]
 8001f7e:	4b03      	ldr	r3, [pc, #12]	@ (8001f8c <Delay+0x14>)
 8001f80:	601a      	str	r2, [r3, #0]

  while(TimingDelay != 0);
 8001f82:	681a      	ldr	r2, [r3, #0]
 8001f84:	2a00      	cmp	r2, #0
 8001f86:	d1fc      	bne.n	8001f82 <Delay+0xa>
}
 8001f88:	b002      	add	sp, #8
 8001f8a:	4770      	bx	lr
 8001f8c:	20000028 	.word	0x20000028

08001f90 <main>:
{
 8001f90:	b510      	push	{r4, lr}
 8001f92:	b08a      	sub	sp, #40	@ 0x28
  System_Clock_Init();
 8001f94:	f7ff ffd0 	bl	8001f38 <System_Clock_Init>
  I2C_Settings_Init();
 8001f98:	f000 f8b6 	bl	8002108 <I2C_Settings_Init>
  ICM20948_init();
 8001f9c:	f000 f980 	bl	80022a0 <ICM20948_init>
  getICM20948_ACCEL_GYRO_TEMPdata(ambient_data);
 8001fa0:	4668      	mov	r0, sp
 8001fa2:	f000 f9cd 	bl	8002340 <getICM20948_ACCEL_GYRO_TEMPdata>
  getICM20948_ACCEL_GYRO_TEMPdata(ambient_data);
 8001fa6:	4668      	mov	r0, sp
 8001fa8:	f000 f9ca 	bl	8002340 <getICM20948_ACCEL_GYRO_TEMPdata>
    Delay(1000);
 8001fac:	24fa      	movs	r4, #250	@ 0xfa
  BlinkSpeed = 0;
 8001fae:	2200      	movs	r2, #0
 8001fb0:	4b04      	ldr	r3, [pc, #16]	@ (8001fc4 <main+0x34>)
    Delay(1000);
 8001fb2:	00a4      	lsls	r4, r4, #2
  BlinkSpeed = 0;
 8001fb4:	701a      	strb	r2, [r3, #0]
    STM_EVAL_LEDToggle(LED2);
 8001fb6:	2000      	movs	r0, #0
 8001fb8:	f000 f86a 	bl	8002090 <STM_EVAL_LEDToggle>
    Delay(1000);
 8001fbc:	0020      	movs	r0, r4
 8001fbe:	f7ff ffdb 	bl	8001f78 <Delay>
  while (1)
 8001fc2:	e7f8      	b.n	8001fb6 <main+0x26>
 8001fc4:	20000024 	.word	0x20000024

08001fc8 <TimingDelay_Decrement>:
* @param  None
* @retval None
*/
void TimingDelay_Decrement(void)
{
  if (TimingDelay != 0x00)
 8001fc8:	4b03      	ldr	r3, [pc, #12]	@ (8001fd8 <TimingDelay_Decrement+0x10>)
 8001fca:	681a      	ldr	r2, [r3, #0]
 8001fcc:	2a00      	cmp	r2, #0
 8001fce:	d002      	beq.n	8001fd6 <TimingDelay_Decrement+0xe>
  { 
    TimingDelay--;
 8001fd0:	681a      	ldr	r2, [r3, #0]
 8001fd2:	3a01      	subs	r2, #1
 8001fd4:	601a      	str	r2, [r3, #0]
  }
}
 8001fd6:	4770      	bx	lr
 8001fd8:	20000028 	.word	0x20000028

08001fdc <SystemInit>:
  *         SystemCoreClock variable.
  * @param  None
  * @retval None
  */
void SystemInit (void)
{    
 8001fdc:	b513      	push	{r0, r1, r4, lr}
  /* Set HSION bit */
  RCC->CR |= (uint32_t)0x00000001;
 8001fde:	2001      	movs	r0, #1

  /* Reset PLLSRC, PLLXTPRE and PLLMUL[3:0] bits */
  RCC->CFGR &= (uint32_t)0xFFC0FFFF;

  /* Reset PREDIV1[3:0] bits */
  RCC->CFGR2 &= (uint32_t)0xFFFFFFF0;
 8001fe0:	240f      	movs	r4, #15
  RCC->CR |= (uint32_t)0x00000001;
 8001fe2:	4b24      	ldr	r3, [pc, #144]	@ (8002074 <SystemInit+0x98>)
  RCC->CFGR &= (uint32_t)0xF8FFB80C;
 8001fe4:	4924      	ldr	r1, [pc, #144]	@ (8002078 <SystemInit+0x9c>)
  RCC->CR |= (uint32_t)0x00000001;
 8001fe6:	681a      	ldr	r2, [r3, #0]
 8001fe8:	4302      	orrs	r2, r0
 8001fea:	601a      	str	r2, [r3, #0]
  RCC->CFGR &= (uint32_t)0xF8FFB80C;
 8001fec:	685a      	ldr	r2, [r3, #4]
 8001fee:	400a      	ands	r2, r1
 8001ff0:	605a      	str	r2, [r3, #4]
  RCC->CR &= (uint32_t)0xFEF6FFFF;
 8001ff2:	681a      	ldr	r2, [r3, #0]
 8001ff4:	4921      	ldr	r1, [pc, #132]	@ (800207c <SystemInit+0xa0>)
 8001ff6:	400a      	ands	r2, r1
 8001ff8:	601a      	str	r2, [r3, #0]
  RCC->CR &= (uint32_t)0xFFFBFFFF;
 8001ffa:	681a      	ldr	r2, [r3, #0]
 8001ffc:	4920      	ldr	r1, [pc, #128]	@ (8002080 <SystemInit+0xa4>)
 8001ffe:	400a      	ands	r2, r1
 8002000:	601a      	str	r2, [r3, #0]
  RCC->CFGR &= (uint32_t)0xFFC0FFFF;
 8002002:	685a      	ldr	r2, [r3, #4]
 8002004:	491f      	ldr	r1, [pc, #124]	@ (8002084 <SystemInit+0xa8>)
 8002006:	400a      	ands	r2, r1
 8002008:	605a      	str	r2, [r3, #4]
  RCC->CFGR2 &= (uint32_t)0xFFFFFFF0;
 800200a:	6ada      	ldr	r2, [r3, #44]	@ 0x2c
 800200c:	43a2      	bics	r2, r4
 800200e:	62da      	str	r2, [r3, #44]	@ 0x2c

  /* Reset USARTSW[1:0], I2CSW, CECSW and ADCSW bits */
  RCC->CFGR3 &= (uint32_t)0xFFFFFEAC;
 8002010:	6b1a      	ldr	r2, [r3, #48]	@ 0x30
 8002012:	4c1d      	ldr	r4, [pc, #116]	@ (8002088 <SystemInit+0xac>)
 8002014:	4022      	ands	r2, r4
 8002016:	631a      	str	r2, [r3, #48]	@ 0x30

  /* Reset HSI14 bit */
  RCC->CR2 &= (uint32_t)0xFFFFFFFE;
 8002018:	6b5a      	ldr	r2, [r3, #52]	@ 0x34
 800201a:	4382      	bics	r2, r0
 800201c:	635a      	str	r2, [r3, #52]	@ 0x34

  /* Disable all interrupts */
  RCC->CIR = 0x00000000;
 800201e:	2200      	movs	r2, #0
 8002020:	609a      	str	r2, [r3, #8]
  * @param  None
  * @retval None
  */
static void SetSysClock(void)
{
  __IO uint32_t StartUpCounter = 0, HSEStatus = 0;
 8002022:	9200      	str	r2, [sp, #0]
 8002024:	9201      	str	r2, [sp, #4]
  /* SYSCLK, HCLK, PCLK configuration ----------------------------------------*/
#if defined (PLL_SOURCE_HSI)
  /* At this stage the HSI is already enabled */

  /* Enable Prefetch Buffer and set Flash Latency */
  FLASH->ACR = FLASH_ACR_PRFTBE | FLASH_ACR_LATENCY;
 8002026:	4a19      	ldr	r2, [pc, #100]	@ (800208c <SystemInit+0xb0>)
 8002028:	3010      	adds	r0, #16
 800202a:	6010      	str	r0, [r2, #0]
 
  /* HCLK = SYSCLK */
  RCC->CFGR |= (uint32_t)RCC_CFGR_HPRE_DIV1;
 800202c:	685a      	ldr	r2, [r3, #4]
 800202e:	605a      	str	r2, [r3, #4]
      
  /* PCLK = HCLK */
  RCC->CFGR |= (uint32_t)RCC_CFGR_PPRE_DIV1;
 8002030:	685a      	ldr	r2, [r3, #4]
 8002032:	605a      	str	r2, [r3, #4]

  /* PLL configuration = (HSI/2) * 12 = ~48 MHz */
  RCC->CFGR &= (uint32_t)((uint32_t)~(RCC_CFGR_PLLSRC | RCC_CFGR_PLLXTPRE | RCC_CFGR_PLLMULL));
 8002034:	685a      	ldr	r2, [r3, #4]
 8002036:	400a      	ands	r2, r1
 8002038:	605a      	str	r2, [r3, #4]
  RCC->CFGR |= (uint32_t)(RCC_CFGR_PLLSRC_HSI_Div2 | RCC_CFGR_PLLXTPRE_PREDIV1 | RCC_CFGR_PLLMULL12);
 800203a:	22a0      	movs	r2, #160	@ 0xa0
 800203c:	6859      	ldr	r1, [r3, #4]
 800203e:	0392      	lsls	r2, r2, #14
 8002040:	430a      	orrs	r2, r1
 8002042:	605a      	str	r2, [r3, #4]
            
  /* Enable PLL */
  RCC->CR |= RCC_CR_PLLON;
 8002044:	2280      	movs	r2, #128	@ 0x80
 8002046:	6819      	ldr	r1, [r3, #0]
 8002048:	0452      	lsls	r2, r2, #17
 800204a:	430a      	orrs	r2, r1
 800204c:	601a      	str	r2, [r3, #0]

  /* Wait till PLL is ready */
  while((RCC->CR & RCC_CR_PLLRDY) == 0)
 800204e:	2280      	movs	r2, #128	@ 0x80
 8002050:	0492      	lsls	r2, r2, #18
 8002052:	6819      	ldr	r1, [r3, #0]
 8002054:	4211      	tst	r1, r2
 8002056:	d0fc      	beq.n	8002052 <SystemInit+0x76>
  {
  }

  /* Select PLL as system clock source */
  RCC->CFGR &= (uint32_t)((uint32_t)~(RCC_CFGR_SW));
 8002058:	2103      	movs	r1, #3
 800205a:	685a      	ldr	r2, [r3, #4]
 800205c:	438a      	bics	r2, r1
 800205e:	605a      	str	r2, [r3, #4]
  RCC->CFGR |= (uint32_t)RCC_CFGR_SW_PLL;    
 8002060:	2202      	movs	r2, #2
 8002062:	6859      	ldr	r1, [r3, #4]
 8002064:	430a      	orrs	r2, r1

  /* Wait till PLL is used as system clock source */
  while ((RCC->CFGR & (uint32_t)RCC_CFGR_SWS) != (uint32_t)RCC_CFGR_SWS_PLL)
 8002066:	210c      	movs	r1, #12
  RCC->CFGR |= (uint32_t)RCC_CFGR_SW_PLL;    
 8002068:	605a      	str	r2, [r3, #4]
  while ((RCC->CFGR & (uint32_t)RCC_CFGR_SWS) != (uint32_t)RCC_CFGR_SWS_PLL)
 800206a:	685a      	ldr	r2, [r3, #4]
 800206c:	400a      	ands	r2, r1
 800206e:	2a08      	cmp	r2, #8
 8002070:	d1fb      	bne.n	800206a <SystemInit+0x8e>
}
 8002072:	bd13      	pop	{r0, r1, r4, pc}
 8002074:	40021000 	.word	0x40021000
 8002078:	f8ffb80c 	.word	0xf8ffb80c
 800207c:	fef6ffff 	.word	0xfef6ffff
 8002080:	fffbffff 	.word	0xfffbffff
 8002084:	ffc0ffff 	.word	0xffc0ffff
 8002088:	fffffeac 	.word	0xfffffeac
 800208c:	40022000 	.word	0x40022000

08002090 <STM_EVAL_LEDToggle>:
  *         This parameter must be: LED2
  * @retval None
  */
void STM_EVAL_LEDToggle(Led_TypeDef Led)
{
  GPIO_PORT[Led]->ODR ^= GPIO_PIN[Led];
 8002090:	4b03      	ldr	r3, [pc, #12]	@ (80020a0 <STM_EVAL_LEDToggle+0x10>)
 8002092:	0080      	lsls	r0, r0, #2
 8002094:	58c2      	ldr	r2, [r0, r3]
 8002096:	2320      	movs	r3, #32
 8002098:	8a91      	ldrh	r1, [r2, #20]
 800209a:	404b      	eors	r3, r1
 800209c:	8293      	strh	r3, [r2, #20]
}
 800209e:	4770      	bx	lr
 80020a0:	20000004 	.word	0x20000004

080020a4 <STM_EVAL_PBGetState>:
  *   This parameter must be: BUTTON_USER  
  * @retval The Button GPIO pin value.
  */
uint32_t STM_EVAL_PBGetState(Button_TypeDef Button)
{
  return GPIO_ReadInputDataBit(BUTTON_PORT[Button], BUTTON_PIN[Button]);
 80020a4:	2180      	movs	r1, #128	@ 0x80
{
 80020a6:	b510      	push	{r4, lr}
  return GPIO_ReadInputDataBit(BUTTON_PORT[Button], BUTTON_PIN[Button]);
 80020a8:	4b03      	ldr	r3, [pc, #12]	@ (80020b8 <STM_EVAL_PBGetState+0x14>)
 80020aa:	0080      	lsls	r0, r0, #2
 80020ac:	58c0      	ldr	r0, [r0, r3]
 80020ae:	0189      	lsls	r1, r1, #6
 80020b0:	f7fe f93e 	bl	8000330 <GPIO_ReadInputDataBit>
}
 80020b4:	bd10      	pop	{r4, pc}
 80020b6:	46c0      	nop			@ (mov r8, r8)
 80020b8:	20000000 	.word	0x20000000

080020bc <NMI_Handler>:
  * @param  None
  * @retval None
  */
void NMI_Handler(void)
{
}
 80020bc:	4770      	bx	lr

080020be <HardFault_Handler>:
  * @retval None
  */
void HardFault_Handler(void)
{
  /* Go to infinite loop when Hard Fault exception occurs */
  while (1)
 80020be:	e7fe      	b.n	80020be <HardFault_Handler>

080020c0 <SVC_Handler>:
/**
  * @brief  This function handles SVCall exception.
  * @param  None
  * @retval None
  */
void SVC_Handler(void)
 80020c0:	4770      	bx	lr

080020c2 <PendSV_Handler>:
/**
  * @brief  This function handles PendSVC exception.
  * @param  None
  * @retval None
  */
void PendSV_Handler(void)
 80020c2:	4770      	bx	lr

080020c4 <SysTick_Handler>:
  * @brief  This function handles SysTick Handler.
  * @param  None
  * @retval None
  */
void SysTick_Handler(void)
{
 80020c4:	b510      	push	{r4, lr}
  TimingDelay_Decrement();
 80020c6:	f7ff ff7f 	bl	8001fc8 <TimingDelay_Decrement>
}
 80020ca:	bd10      	pop	{r4, pc}

080020cc <EXTI4_15_IRQHandler>:
  * @param  None
  * @retval None
  */
void EXTI4_15_IRQHandler(void)
{
  if ((EXTI_GetITStatus(USER_BUTTON_EXTI_LINE) == SET)&&(STM_EVAL_PBGetState(BUTTON_USER) != RESET))
 80020cc:	2080      	movs	r0, #128	@ 0x80
{
 80020ce:	b510      	push	{r4, lr}
  if ((EXTI_GetITStatus(USER_BUTTON_EXTI_LINE) == SET)&&(STM_EVAL_PBGetState(BUTTON_USER) != RESET))
 80020d0:	0180      	lsls	r0, r0, #6
 80020d2:	f7fe f859 	bl	8000188 <EXTI_GetITStatus>
 80020d6:	2801      	cmp	r0, #1
 80020d8:	d10e      	bne.n	80020f8 <EXTI4_15_IRQHandler+0x2c>
 80020da:	2000      	movs	r0, #0
 80020dc:	f7ff ffe2 	bl	80020a4 <STM_EVAL_PBGetState>
 80020e0:	2800      	cmp	r0, #0
 80020e2:	d009      	beq.n	80020f8 <EXTI4_15_IRQHandler+0x2c>
	{		
  if(BlinkSpeed == 1)
 80020e4:	4a07      	ldr	r2, [pc, #28]	@ (8002104 <EXTI4_15_IRQHandler+0x38>)
 80020e6:	7813      	ldrb	r3, [r2, #0]
 80020e8:	2b01      	cmp	r3, #1
 80020ea:	d106      	bne.n	80020fa <EXTI4_15_IRQHandler+0x2e>
  {
    BlinkSpeed = 0;
 80020ec:	2300      	movs	r3, #0
  else
  {
    BlinkSpeed ++;
  }
  /* Clear the EXTI line pending bit */
  EXTI_ClearITPendingBit(USER_BUTTON_EXTI_LINE);
 80020ee:	2080      	movs	r0, #128	@ 0x80
 80020f0:	0180      	lsls	r0, r0, #6
    BlinkSpeed ++;
 80020f2:	7013      	strb	r3, [r2, #0]
  EXTI_ClearITPendingBit(USER_BUTTON_EXTI_LINE);
 80020f4:	f7fe f856 	bl	80001a4 <EXTI_ClearITPendingBit>
  }	
}
 80020f8:	bd10      	pop	{r4, pc}
    BlinkSpeed ++;
 80020fa:	7813      	ldrb	r3, [r2, #0]
 80020fc:	3301      	adds	r3, #1
 80020fe:	b2db      	uxtb	r3, r3
 8002100:	e7f5      	b.n	80020ee <EXTI4_15_IRQHandler+0x22>
 8002102:	46c0      	nop			@ (mov r8, r8)
 8002104:	20000024 	.word	0x20000024

08002108 <I2C_Settings_Init>:
 * @retval None
 */
void I2C_Settings_Init(){

  // Enable peripheral clock
  RCC_APB1PeriphClockCmd(RCC_APB1Periph_I2C1, ENABLE);
 8002108:	2080      	movs	r0, #128	@ 0x80
void I2C_Settings_Init(){
 800210a:	b530      	push	{r4, r5, lr}
  RCC_APB1PeriphClockCmd(RCC_APB1Periph_I2C1, ENABLE);
 800210c:	2101      	movs	r1, #1
void I2C_Settings_Init(){
 800210e:	b08b      	sub	sp, #44	@ 0x2c
  RCC_APB1PeriphClockCmd(RCC_APB1Periph_I2C1, ENABLE);
 8002110:	0380      	lsls	r0, r0, #14
 8002112:	f7fe fda9 	bl	8000c68 <RCC_APB1PeriphClockCmd>
  //RCC_APB2PeriphClockCmd(RCC_APB2Periph_SYSCFG, ENABLE);//
  RCC_AHBPeriphClockCmd(RCC_AHBPeriph_GPIOB, ENABLE);
 8002116:	2080      	movs	r0, #128	@ 0x80

  // Use pins PB8 and PB9 for I2C (STM32F030R8T6)
  GPIO_InitTypeDef GPIO_InitStruct;
  GPIO_PinAFConfig(GPIOB, GPIO_PinSource8, GPIO_AF_1);
 8002118:	4c16      	ldr	r4, [pc, #88]	@ (8002174 <I2C_Settings_Init+0x6c>)
  RCC_AHBPeriphClockCmd(RCC_AHBPeriph_GPIOB, ENABLE);
 800211a:	2101      	movs	r1, #1
 800211c:	02c0      	lsls	r0, r0, #11
 800211e:	f7fe fd8b 	bl	8000c38 <RCC_AHBPeriphClockCmd>
  GPIO_PinAFConfig(GPIOB, GPIO_PinSource8, GPIO_AF_1);
 8002122:	0020      	movs	r0, r4
 8002124:	2201      	movs	r2, #1
 8002126:	2108      	movs	r1, #8
 8002128:	f7fe f926 	bl	8000378 <GPIO_PinAFConfig>
  GPIO_PinAFConfig(GPIOB, GPIO_PinSource9, GPIO_AF_1);
 800212c:	2201      	movs	r2, #1
 800212e:	0020      	movs	r0, r4
 8002130:	2109      	movs	r1, #9
 8002132:	f7fe f921 	bl	8000378 <GPIO_PinAFConfig>
  GPIO_InitStruct.GPIO_Pin = GPIO_Pin_8 | GPIO_Pin_9;
 8002136:	23c0      	movs	r3, #192	@ 0xc0
 8002138:	009b      	lsls	r3, r3, #2
 800213a:	9301      	str	r3, [sp, #4]
  GPIO_InitStruct.GPIO_Mode = GPIO_Mode_AF;
 800213c:	4b0e      	ldr	r3, [pc, #56]	@ (8002178 <I2C_Settings_Init+0x70>)
  GPIO_InitStruct.GPIO_Speed = GPIO_Speed_50MHz; 
  GPIO_InitStruct.GPIO_OType = GPIO_OType_OD;
  GPIO_InitStruct.GPIO_PuPd = GPIO_PuPd_UP;
  GPIO_Init(GPIOB, &GPIO_InitStruct);
 800213e:	0020      	movs	r0, r4
 8002140:	a901      	add	r1, sp, #4
  GPIO_InitStruct.GPIO_Mode = GPIO_Mode_AF;
 8002142:	9302      	str	r3, [sp, #8]
  GPIO_Init(GPIOB, &GPIO_InitStruct);
 8002144:	f7fe f886 	bl	8000254 <GPIO_Init>
	
  // I2C configuration
  I2C_InitTypeDef I2C_InitStruct;
  I2C_InitStruct.I2C_Mode = I2C_Mode_I2C;
 8002148:	2300      	movs	r3, #0
  I2C_InitStruct.I2C_AnalogFilter = I2C_AnalogFilter_Enable;
  I2C_InitStruct.I2C_DigitalFilter = 0x00;
  I2C_InitStruct.I2C_Timing = 0x00901D23; // TODO recheck these values if I2C issues occur
  I2C_Init(I2C1, &I2C_InitStruct);
 800214a:	4d0c      	ldr	r5, [pc, #48]	@ (800217c <I2C_Settings_Init+0x74>)
  I2C_InitStruct.I2C_Mode = I2C_Mode_I2C;
 800214c:	ac03      	add	r4, sp, #12
 800214e:	9306      	str	r3, [sp, #24]
  I2C_InitStruct.I2C_AnalogFilter = I2C_AnalogFilter_Enable;
 8002150:	9304      	str	r3, [sp, #16]
  I2C_InitStruct.I2C_DigitalFilter = 0x00;
 8002152:	9305      	str	r3, [sp, #20]
  I2C_InitStruct.I2C_Timing = 0x00901D23; // TODO recheck these values if I2C issues occur
 8002154:	4b0a      	ldr	r3, [pc, #40]	@ (8002180 <I2C_Settings_Init+0x78>)
  I2C_Init(I2C1, &I2C_InitStruct);
 8002156:	0021      	movs	r1, r4
 8002158:	0028      	movs	r0, r5
  I2C_InitStruct.I2C_Timing = 0x00901D23; // TODO recheck these values if I2C issues occur
 800215a:	9303      	str	r3, [sp, #12]
  I2C_Init(I2C1, &I2C_InitStruct);
 800215c:	f7fe f93a 	bl	80003d4 <I2C_Init>
  I2C_Cmd(I2C1, ENABLE);
 8002160:	2101      	movs	r1, #1
 8002162:	0028      	movs	r0, r5
 8002164:	f7fe f974 	bl	8000450 <I2C_Cmd>

  ctx.I2C_InitStruct = &I2C_InitStruct;
  ctx.i2c_address = 0x68; // TODO replace this address with the bme280 address or remove if unnecessary
 8002168:	2268      	movs	r2, #104	@ 0x68
  ctx.I2C_InitStruct = &I2C_InitStruct;
 800216a:	4b06      	ldr	r3, [pc, #24]	@ (8002184 <I2C_Settings_Init+0x7c>)
 800216c:	601c      	str	r4, [r3, #0]
  ctx.i2c_address = 0x68; // TODO replace this address with the bme280 address or remove if unnecessary
 800216e:	809a      	strh	r2, [r3, #4]
}
 8002170:	b00b      	add	sp, #44	@ 0x2c
 8002172:	bd30      	pop	{r4, r5, pc}
 8002174:	48000400 	.word	0x48000400
 8002178:	01010302 	.word	0x01010302
 800217c:	40005400 	.word	0x40005400
 8002180:	00901d23 	.word	0x00901d23
 8002184:	2000002c 	.word	0x2000002c

08002188 <I2C_transmit>:
 * @brief Transmits a single byte over I2C
 * @param i2c_address 7 bit I2C address of the slave device
 * @param i2c_data byte of data to be transmitted
 * @retval None
 */
void I2C_transmit(uint8_t i2c_address, uint8_t reg_address, uint8_t i2c_data){
 8002188:	b530      	push	{r4, r5, lr}
  // Wait until bus is idle
  while (I2C1->ISR & I2C_ISR_BUSY);
 800218a:	2480      	movs	r4, #128	@ 0x80
 800218c:	4b17      	ldr	r3, [pc, #92]	@ (80021ec <I2C_transmit+0x64>)
 800218e:	0224      	lsls	r4, r4, #8
 8002190:	699d      	ldr	r5, [r3, #24]
 8002192:	4225      	tst	r5, r4
 8002194:	d1fc      	bne.n	8002190 <I2C_transmit+0x8>

  // Clear STOP flag from previous transfer
  I2C1->ICR = I2C_ICR_STOPCF;
 8002196:	2420      	movs	r4, #32
 8002198:	61dc      	str	r4, [r3, #28]

  // Configure transfer (WRITE, 1 byte)
  I2C1->CR2 =
      (i2c_address << 1) |           // Slave address
      (2 << 16)|
 800219a:	0044      	lsls	r4, r0, #1
 800219c:	2088      	movs	r0, #136	@ 0x88
 800219e:	0280      	lsls	r0, r0, #10
 80021a0:	4320      	orrs	r0, r4
  I2C1->CR2 =
 80021a2:	6058      	str	r0, [r3, #4]
      I2C_CR2_START;                 // Generate START


  // Wait for TXIS or NACK
  while (!(I2C1->ISR & (I2C_ISR_TXIS | I2C_ISR_NACKF)));
 80021a4:	2012      	movs	r0, #18
 80021a6:	699c      	ldr	r4, [r3, #24]
 80021a8:	4204      	tst	r4, r0
 80021aa:	d0fc      	beq.n	80021a6 <I2C_transmit+0x1e>

  if (I2C1->ISR & I2C_ISR_NACKF) {
 80021ac:	2010      	movs	r0, #16
 80021ae:	699c      	ldr	r4, [r3, #24]
 80021b0:	4204      	tst	r4, r0
 80021b2:	d001      	beq.n	80021b8 <I2C_transmit+0x30>
      I2C1->ICR = I2C_ICR_NACKCF;
 80021b4:	61d8      	str	r0, [r3, #28]
  I2C1->CR2 |= I2C_CR2_STOP;

  // Wait for STOP to finish
  while (!(I2C1->ISR & I2C_ISR_STOPF));
  I2C1->ICR = I2C_ICR_STOPCF;
}
 80021b6:	bd30      	pop	{r4, r5, pc}
  I2C1->TXDR = reg_address;
 80021b8:	6299      	str	r1, [r3, #40]	@ 0x28
  while(!(I2C1->ISR & I2C_ISR_TXIS)); // Wait again
 80021ba:	2102      	movs	r1, #2
 80021bc:	6998      	ldr	r0, [r3, #24]
 80021be:	4208      	tst	r0, r1
 80021c0:	d0fc      	beq.n	80021bc <I2C_transmit+0x34>
  I2C1->TXDR = i2c_data;
 80021c2:	629a      	str	r2, [r3, #40]	@ 0x28
  while (!(I2C1->ISR & (I2C_ISR_TC | I2C_ISR_NACKF))); // TODO Should check for NACK here too? Not sure.
 80021c4:	2250      	movs	r2, #80	@ 0x50
 80021c6:	6999      	ldr	r1, [r3, #24]
 80021c8:	4211      	tst	r1, r2
 80021ca:	d0fc      	beq.n	80021c6 <I2C_transmit+0x3e>
  if (I2C1->ISR & I2C_ISR_NACKF) {
 80021cc:	2210      	movs	r2, #16
 80021ce:	6999      	ldr	r1, [r3, #24]
 80021d0:	4211      	tst	r1, r2
 80021d2:	d001      	beq.n	80021d8 <I2C_transmit+0x50>
  I2C1->ICR = I2C_ICR_STOPCF;
 80021d4:	61da      	str	r2, [r3, #28]
 80021d6:	e7ee      	b.n	80021b6 <I2C_transmit+0x2e>
  I2C1->CR2 |= I2C_CR2_STOP;
 80021d8:	2280      	movs	r2, #128	@ 0x80
 80021da:	6859      	ldr	r1, [r3, #4]
 80021dc:	01d2      	lsls	r2, r2, #7
 80021de:	430a      	orrs	r2, r1
 80021e0:	605a      	str	r2, [r3, #4]
  while (!(I2C1->ISR & I2C_ISR_STOPF));
 80021e2:	2220      	movs	r2, #32
 80021e4:	6999      	ldr	r1, [r3, #24]
 80021e6:	4211      	tst	r1, r2
 80021e8:	d0fc      	beq.n	80021e4 <I2C_transmit+0x5c>
 80021ea:	e7f3      	b.n	80021d4 <I2C_transmit+0x4c>
 80021ec:	40005400 	.word	0x40005400

080021f0 <I2C_receive>:
 * @param uint8_t  reg_address register address to read from
 * @param uint8_t* i2c_data pointer to array to store received data
 * @param uint8_t  numbytes number of bytes to read
 * @retval Received byte of data
 */
uint8_t * I2C_receive(uint8_t i2c_address, uint8_t reg_address, uint8_t * i2c_data, uint8_t numbytes){
 80021f0:	b573      	push	{r0, r1, r4, r5, r6, lr}
 80021f2:	0015      	movs	r5, r2
 80021f4:	9101      	str	r1, [sp, #4]

  // Populate array with error data
  for(int i = 0; i < numbytes; i++){
    i2c_data[i] = 0xFF;
 80021f6:	001a      	movs	r2, r3
uint8_t * I2C_receive(uint8_t i2c_address, uint8_t reg_address, uint8_t * i2c_data, uint8_t numbytes){
 80021f8:	0004      	movs	r4, r0
    i2c_data[i] = 0xFF;
 80021fa:	21ff      	movs	r1, #255	@ 0xff
 80021fc:	0028      	movs	r0, r5
uint8_t * I2C_receive(uint8_t i2c_address, uint8_t reg_address, uint8_t * i2c_data, uint8_t numbytes){
 80021fe:	001e      	movs	r6, r3
    i2c_data[i] = 0xFF;
 8002200:	f7ff fe22 	bl	8001e48 <memset>
  }

  // Wait until bus is idle
  while (I2C1->ISR & I2C_ISR_BUSY);
 8002204:	2280      	movs	r2, #128	@ 0x80
 8002206:	4b24      	ldr	r3, [pc, #144]	@ (8002298 <I2C_receive+0xa8>)
 8002208:	0212      	lsls	r2, r2, #8
 800220a:	6999      	ldr	r1, [r3, #24]
 800220c:	4211      	tst	r1, r2
 800220e:	d1fc      	bne.n	800220a <I2C_receive+0x1a>

  // Clear STOP flag from previous transfer
  I2C1->ICR = I2C_ICR_STOPCF;
 8002210:	2220      	movs	r2, #32
 8002212:	61da      	str	r2, [r3, #28]

  // Configure transfer (WRITE, 1 byte)
  I2C1->CR2 =
      (i2c_address << 1) |           // Slave address
      (1 << 16)| 
 8002214:	2290      	movs	r2, #144	@ 0x90
 8002216:	0064      	lsls	r4, r4, #1
 8002218:	0252      	lsls	r2, r2, #9
 800221a:	4322      	orrs	r2, r4
  I2C1->CR2 =
 800221c:	605a      	str	r2, [r3, #4]
      I2C_CR2_START;                 // Generate START


  // Wait for TXIS or NACK
  while (!(I2C1->ISR & (I2C_ISR_TXIS | I2C_ISR_NACKF)));
 800221e:	2212      	movs	r2, #18
 8002220:	6999      	ldr	r1, [r3, #24]
 8002222:	4211      	tst	r1, r2
 8002224:	d0fc      	beq.n	8002220 <I2C_receive+0x30>

  if (I2C1->ISR & I2C_ISR_NACKF) {
 8002226:	2210      	movs	r2, #16
 8002228:	6999      	ldr	r1, [r3, #24]
 800222a:	4211      	tst	r1, r2
 800222c:	d001      	beq.n	8002232 <I2C_receive+0x42>
    i2c_data[i] = I2C1 -> RXDR;
  }
  
  // Wait for STOP to finish
  while (!(I2C1->ISR & I2C_ISR_STOPF));
  I2C1->ICR = I2C_ICR_STOPCF;
 800222e:	61da      	str	r2, [r3, #28]
  
  return i2c_data;
 8002230:	e00a      	b.n	8002248 <I2C_receive+0x58>
  I2C1->TXDR = reg_address;
 8002232:	9a01      	ldr	r2, [sp, #4]
 8002234:	629a      	str	r2, [r3, #40]	@ 0x28
  while (!(I2C1->ISR & (I2C_ISR_TC | I2C_ISR_NACKF))); // TODO Should check for NACK here too? Not sure. Do I need to check for TC when reading right afterwards?
 8002236:	2250      	movs	r2, #80	@ 0x50
 8002238:	6999      	ldr	r1, [r3, #24]
 800223a:	4211      	tst	r1, r2
 800223c:	d0fc      	beq.n	8002238 <I2C_receive+0x48>
  if (I2C1->ISR & I2C_ISR_NACKF) {
 800223e:	2110      	movs	r1, #16
 8002240:	699a      	ldr	r2, [r3, #24]
 8002242:	420a      	tst	r2, r1
 8002244:	d002      	beq.n	800224c <I2C_receive+0x5c>
      I2C1->ICR = I2C_ICR_NACKCF;
 8002246:	61d9      	str	r1, [r3, #28]
}
 8002248:	0028      	movs	r0, r5
 800224a:	bd76      	pop	{r1, r2, r4, r5, r6, pc}
      (numbytes << 16)|
 800224c:	0432      	lsls	r2, r6, #16
      (i2c_address << 1) |           // Slave address
 800224e:	4314      	orrs	r4, r2
      I2C_CR2_START  |              // Generate START
 8002250:	4a12      	ldr	r2, [pc, #72]	@ (800229c <I2C_receive+0xac>)
 8002252:	19a8      	adds	r0, r5, r6
 8002254:	4322      	orrs	r2, r4
  I2C1->CR2 =
 8002256:	605a      	str	r2, [r3, #4]
  for(int i = 0; i < numbytes; i++){
 8002258:	002a      	movs	r2, r5
 800225a:	9001      	str	r0, [sp, #4]
 800225c:	9801      	ldr	r0, [sp, #4]
 800225e:	4290      	cmp	r0, r2
 8002260:	d104      	bne.n	800226c <I2C_receive+0x7c>
  while (!(I2C1->ISR & I2C_ISR_STOPF));
 8002262:	2220      	movs	r2, #32
 8002264:	6999      	ldr	r1, [r3, #24]
 8002266:	4211      	tst	r1, r2
 8002268:	d0fc      	beq.n	8002264 <I2C_receive+0x74>
 800226a:	e7e0      	b.n	800222e <I2C_receive+0x3e>
    while (!(I2C1->ISR & (I2C_ISR_RXNE | I2C_ISR_NACKF)));
 800226c:	2014      	movs	r0, #20
 800226e:	699c      	ldr	r4, [r3, #24]
 8002270:	4204      	tst	r4, r0
 8002272:	d0fb      	beq.n	800226c <I2C_receive+0x7c>
    if (I2C1->ISR & I2C_ISR_NACKF) {
 8002274:	699c      	ldr	r4, [r3, #24]
 8002276:	420c      	tst	r4, r1
 8002278:	d009      	beq.n	800228e <I2C_receive+0x9e>
        i2c_data[i] = 0xFF;
 800227a:	2201      	movs	r2, #1
      I2C1->ICR = I2C_ICR_NACKCF;
 800227c:	61d9      	str	r1, [r3, #28]
        i2c_data[i] = 0xFF;
 800227e:	2e00      	cmp	r6, #0
 8002280:	d000      	beq.n	8002284 <I2C_receive+0x94>
 8002282:	0032      	movs	r2, r6
 8002284:	21ff      	movs	r1, #255	@ 0xff
 8002286:	0028      	movs	r0, r5
 8002288:	f7ff fdde 	bl	8001e48 <memset>
 800228c:	e7dc      	b.n	8002248 <I2C_receive+0x58>
    i2c_data[i] = I2C1 -> RXDR;
 800228e:	6a5c      	ldr	r4, [r3, #36]	@ 0x24
 8002290:	7014      	strb	r4, [r2, #0]
  for(int i = 0; i < numbytes; i++){
 8002292:	3201      	adds	r2, #1
 8002294:	e7e2      	b.n	800225c <I2C_receive+0x6c>
 8002296:	46c0      	nop			@ (mov r8, r8)
 8002298:	40005400 	.word	0x40005400
 800229c:	02002400 	.word	0x02002400

080022a0 <ICM20948_init>:
  /**
   * @brief Sets up ICM20948 for data collection and puts magnetometer(AK09916) into continuous mode 4 (100 Hz data rate)
   * @param None
   * @retval N0ne
   */
  void ICM20948_init(){
 80022a0:	b510      	push	{r4, lr}
    
    I2C_transmit(0x69, REG_BANK_SEL, USER_BANK_0); // switch to USER BANK 0
 80022a2:	2200      	movs	r2, #0
 80022a4:	217f      	movs	r1, #127	@ 0x7f
 80022a6:	2069      	movs	r0, #105	@ 0x69
 80022a8:	f7ff ff6e 	bl	8002188 <I2C_transmit>

    I2C_transmit(0x69, LP_CONFIG, 0x30); // set low power mode for ICM20948 (ACCEL/ GYRO in duty cycle mode)
 80022ac:	2230      	movs	r2, #48	@ 0x30
 80022ae:	2105      	movs	r1, #5
 80022b0:	2069      	movs	r0, #105	@ 0x69
 80022b2:	f7ff ff69 	bl	8002188 <I2C_transmit>

    I2C_transmit(0x69, PWR_MGMT_1, 0x11); // set low power enable for digital circuitry (does not turn on LP mode, use LP_CONFIG) and auto clock select for ICM20948
 80022b6:	2211      	movs	r2, #17
 80022b8:	2106      	movs	r1, #6
 80022ba:	2069      	movs	r0, #105	@ 0x69
 80022bc:	f7ff ff64 	bl	8002188 <I2C_transmit>
    I2C_transmit(0x69, PWR_MGMT_2, 0x00); // enable accelerometer and gyroscope for ICM20948
 80022c0:	2200      	movs	r2, #0
 80022c2:	2107      	movs	r1, #7
 80022c4:	2069      	movs	r0, #105	@ 0x69
 80022c6:	f7ff ff5f 	bl	8002188 <I2C_transmit>

    I2C_transmit(0x69, REG_BANK_SEL, USER_BANK_2); // switch to USER BANK 2
 80022ca:	2220      	movs	r2, #32
 80022cc:	217f      	movs	r1, #127	@ 0x7f
 80022ce:	2069      	movs	r0, #105	@ 0x69
 80022d0:	f7ff ff5a 	bl	8002188 <I2C_transmit>
  
    I2C_transmit(0x69, TEMP_CONFIG, 0x01); // set TEMP_DLPCFG for temperature sensor to 1
 80022d4:	2201      	movs	r2, #1
 80022d6:	2153      	movs	r1, #83	@ 0x53
 80022d8:	2069      	movs	r0, #105	@ 0x69
 80022da:	f7ff ff55 	bl	8002188 <I2C_transmit>

    I2C_transmit(0x69, GYRO_SMPLRT_DIV, 0x07); // set gyro sample rate divider to 7 for ICM20948
 80022de:	2207      	movs	r2, #7
 80022e0:	2100      	movs	r1, #0
 80022e2:	2069      	movs	r0, #105	@ 0x69
 80022e4:	f7ff ff50 	bl	8002188 <I2C_transmit>
    I2C_transmit(0x69, GYRO_CONFIG_1, 0x3F); // Set gyro +- range to 2000dps and DLPF 3dB point to 361 Hz, and enable LPF for ICM20948
 80022e8:	223f      	movs	r2, #63	@ 0x3f
 80022ea:	2101      	movs	r1, #1
 80022ec:	2069      	movs	r0, #105	@ 0x69
 80022ee:	f7ff ff4b 	bl	8002188 <I2C_transmit>
    I2C_transmit(0x69, GYRO_CONFIG_2, 0x02); // Enable 4x averaging for gyro data for ICM20948
 80022f2:	2202      	movs	r2, #2
 80022f4:	2069      	movs	r0, #105	@ 0x69
 80022f6:	0011      	movs	r1, r2
 80022f8:	f7ff ff46 	bl	8002188 <I2C_transmit>

    I2C_transmit(0x69, ACCEL_SMPLRT_DIV, 0x0A); // set accel sample rate divider to 10 for ICM20948
 80022fc:	220a      	movs	r2, #10
 80022fe:	2110      	movs	r1, #16
 8002300:	2069      	movs	r0, #105	@ 0x69
 8002302:	f7ff ff41 	bl	8002188 <I2C_transmit>
    I2C_transmit(0x69, ACCEL_CONFIG, 0x3F); // Set accel +- range to 16g and DLPF 3dB point to 473 Hz, and enable LPF for ICM20948
 8002306:	223f      	movs	r2, #63	@ 0x3f
 8002308:	2114      	movs	r1, #20
 800230a:	2069      	movs	r0, #105	@ 0x69
 800230c:	f7ff ff3c 	bl	8002188 <I2C_transmit>
    I2C_transmit(0x69, ACCEL_CONFIG_2, 0x00); // Enable 4x averaging for accel data for ICM20948
 8002310:	2200      	movs	r2, #0
 8002312:	2115      	movs	r1, #21
 8002314:	2069      	movs	r0, #105	@ 0x69
 8002316:	f7ff ff37 	bl	8002188 <I2C_transmit>

    I2C_transmit(0x69, REG_BANK_SEL, USER_BANK_0); // switch to USER BANK 0
 800231a:	2200      	movs	r2, #0
 800231c:	217f      	movs	r1, #127	@ 0x7f
 800231e:	2069      	movs	r0, #105	@ 0x69
 8002320:	f7ff ff32 	bl	8002188 <I2C_transmit>

    // Enable bypass mode for I2C access of internal magnetometer
    I2C_transmit(0x69, 0x0F, 0x02);  // INT_PIN_CFG: BYPASS_EN = 1
 8002324:	2202      	movs	r2, #2
 8002326:	210f      	movs	r1, #15
 8002328:	2069      	movs	r0, #105	@ 0x69
 800232a:	f7ff ff2d 	bl	8002188 <I2C_transmit>

    I2C_transmit(0x0C, 0x31, 0x08);  // CNTL2 register = 0x16 (continuous 100 Hz updates to magnetometer data)
 800232e:	2208      	movs	r2, #8
 8002330:	2131      	movs	r1, #49	@ 0x31
 8002332:	200c      	movs	r0, #12
 8002334:	f7ff ff28 	bl	8002188 <I2C_transmit>
    Delay(10); // TODO find out how long the magnetometer needs to start up
 8002338:	200a      	movs	r0, #10
 800233a:	f7ff fe1d 	bl	8001f78 <Delay>
  }
 800233e:	bd10      	pop	{r4, pc}

08002340 <getICM20948_ACCEL_GYRO_TEMPdata>:
    int16_t mag_raw[3];
    float mag_out[3];
    uint8_t buf[6];
    uint8_t new_magdata = 0;
    uint8_t mag_overf = 0;
    uint8_t st1 = 0;
 8002340:	2200      	movs	r2, #0
  void getICM20948_ACCEL_GYRO_TEMPdata(float * ICM_data){
 8002342:	b570      	push	{r4, r5, r6, lr}
 8002344:	b090      	sub	sp, #64	@ 0x40
    uint8_t st2 = 0;

      // Read accelerometer and gyroscope data test
    I2C_receive(0x69, GYRO_ACCEL_START_REG, accel_gyro_data, 14); // read ACCEL_XOUT_H register and the following 11 registers for accel and gyro data
 8002346:	ad0c      	add	r5, sp, #48	@ 0x30
    uint8_t st1 = 0;
 8002348:	ab08      	add	r3, sp, #32
    I2C_receive(0x69, GYRO_ACCEL_START_REG, accel_gyro_data, 14); // read ACCEL_XOUT_H register and the following 11 registers for accel and gyro data
 800234a:	212d      	movs	r1, #45	@ 0x2d
    uint8_t st1 = 0;
 800234c:	719a      	strb	r2, [r3, #6]
  void getICM20948_ACCEL_GYRO_TEMPdata(float * ICM_data){
 800234e:	0004      	movs	r4, r0
    I2C_receive(0x69, GYRO_ACCEL_START_REG, accel_gyro_data, 14); // read ACCEL_XOUT_H register and the following 11 registers for accel and gyro data
 8002350:	002a      	movs	r2, r5
 8002352:	230e      	movs	r3, #14
 8002354:	2069      	movs	r0, #105	@ 0x69
 8002356:	f7ff ff4b 	bl	80021f0 <I2C_receive>

    accel_out[0] = ((accel_gyro_data[0] << 8) + accel_gyro_data[1]) / ACCEL_SENSITIVITY * 9.81; // TODO adjust gyro and accelerometer data for temperature drift values
 800235a:	8828      	ldrh	r0, [r5, #0]
    accel_out[1] = ((accel_gyro_data[2] << 8) + accel_gyro_data[3]) / ACCEL_SENSITIVITY * 9.81; // m/s^2 // TODO reading very high m(309.6 m/s^2), bug?
    accel_out[2] = ((accel_gyro_data[4] << 8) + accel_gyro_data[5]) / ACCEL_SENSITIVITY * 9.81; // m/s^2

    gyro_out[0] = (accel_gyro_data[6] * UINT8_MAX + accel_gyro_data[7]) / GYRO_SENSITIVITY; // Degrees per second
 800235c:	26ff      	movs	r6, #255	@ 0xff
    accel_out[0] = ((accel_gyro_data[0] << 8) + accel_gyro_data[1]) / ACCEL_SENSITIVITY * 9.81; // TODO adjust gyro and accelerometer data for temperature drift values
 800235e:	ba40      	rev16	r0, r0
 8002360:	b280      	uxth	r0, r0
 8002362:	f7ff f96f 	bl	8001644 <__aeabi_i2f>
 8002366:	21e8      	movs	r1, #232	@ 0xe8
 8002368:	0589      	lsls	r1, r1, #22
 800236a:	f7ff f82b 	bl	80013c4 <__aeabi_fmul>
 800236e:	f7ff fc7f 	bl	8001c70 <__aeabi_f2d>
 8002372:	4a4d      	ldr	r2, [pc, #308]	@ (80024a8 <getICM20948_ACCEL_GYRO_TEMPdata+0x168>)
 8002374:	4b4d      	ldr	r3, [pc, #308]	@ (80024ac <getICM20948_ACCEL_GYRO_TEMPdata+0x16c>)
 8002376:	f7ff f9af 	bl	80016d8 <__aeabi_dmul>
 800237a:	f7ff fcc1 	bl	8001d00 <__aeabi_d2f>
 800237e:	9000      	str	r0, [sp, #0]
    accel_out[1] = ((accel_gyro_data[2] << 8) + accel_gyro_data[3]) / ACCEL_SENSITIVITY * 9.81; // m/s^2 // TODO reading very high m(309.6 m/s^2), bug?
 8002380:	8868      	ldrh	r0, [r5, #2]
 8002382:	ba40      	rev16	r0, r0
 8002384:	b280      	uxth	r0, r0
 8002386:	f7ff f95d 	bl	8001644 <__aeabi_i2f>
 800238a:	21e8      	movs	r1, #232	@ 0xe8
 800238c:	0589      	lsls	r1, r1, #22
 800238e:	f7ff f819 	bl	80013c4 <__aeabi_fmul>
 8002392:	f7ff fc6d 	bl	8001c70 <__aeabi_f2d>
 8002396:	4a44      	ldr	r2, [pc, #272]	@ (80024a8 <getICM20948_ACCEL_GYRO_TEMPdata+0x168>)
 8002398:	4b44      	ldr	r3, [pc, #272]	@ (80024ac <getICM20948_ACCEL_GYRO_TEMPdata+0x16c>)
 800239a:	f7ff f99d 	bl	80016d8 <__aeabi_dmul>
 800239e:	f7ff fcaf 	bl	8001d00 <__aeabi_d2f>
 80023a2:	9001      	str	r0, [sp, #4]
    accel_out[2] = ((accel_gyro_data[4] << 8) + accel_gyro_data[5]) / ACCEL_SENSITIVITY * 9.81; // m/s^2
 80023a4:	88a8      	ldrh	r0, [r5, #4]
 80023a6:	ba40      	rev16	r0, r0
 80023a8:	b280      	uxth	r0, r0
 80023aa:	f7ff f94b 	bl	8001644 <__aeabi_i2f>
 80023ae:	21e8      	movs	r1, #232	@ 0xe8
 80023b0:	0589      	lsls	r1, r1, #22
 80023b2:	f7ff f807 	bl	80013c4 <__aeabi_fmul>
 80023b6:	f7ff fc5b 	bl	8001c70 <__aeabi_f2d>
 80023ba:	4a3b      	ldr	r2, [pc, #236]	@ (80024a8 <getICM20948_ACCEL_GYRO_TEMPdata+0x168>)
 80023bc:	4b3b      	ldr	r3, [pc, #236]	@ (80024ac <getICM20948_ACCEL_GYRO_TEMPdata+0x16c>)
 80023be:	f7ff f98b 	bl	80016d8 <__aeabi_dmul>
 80023c2:	f7ff fc9d 	bl	8001d00 <__aeabi_d2f>
 80023c6:	9002      	str	r0, [sp, #8]
    gyro_out[0] = (accel_gyro_data[6] * UINT8_MAX + accel_gyro_data[7]) / GYRO_SENSITIVITY; // Degrees per second
 80023c8:	79a8      	ldrb	r0, [r5, #6]
 80023ca:	79eb      	ldrb	r3, [r5, #7]
 80023cc:	4370      	muls	r0, r6
 80023ce:	18c0      	adds	r0, r0, r3
 80023d0:	f7ff f938 	bl	8001644 <__aeabi_i2f>
 80023d4:	4936      	ldr	r1, [pc, #216]	@ (80024b0 <getICM20948_ACCEL_GYRO_TEMPdata+0x170>)
 80023d6:	f7fe fee3 	bl	80011a0 <__aeabi_fdiv>
 80023da:	9003      	str	r0, [sp, #12]
    gyro_out[1] = (accel_gyro_data[8] * UINT8_MAX + accel_gyro_data[9]) / GYRO_SENSITIVITY; // Degrees per second
 80023dc:	7a28      	ldrb	r0, [r5, #8]
 80023de:	7a6b      	ldrb	r3, [r5, #9]
 80023e0:	4370      	muls	r0, r6
 80023e2:	18c0      	adds	r0, r0, r3
 80023e4:	f7ff f92e 	bl	8001644 <__aeabi_i2f>
 80023e8:	4931      	ldr	r1, [pc, #196]	@ (80024b0 <getICM20948_ACCEL_GYRO_TEMPdata+0x170>)
 80023ea:	f7fe fed9 	bl	80011a0 <__aeabi_fdiv>
 80023ee:	9004      	str	r0, [sp, #16]
    gyro_out[2] = (accel_gyro_data[10] * UINT8_MAX + accel_gyro_data[11]) / GYRO_SENSITIVITY; // Degrees per second
 80023f0:	7aab      	ldrb	r3, [r5, #10]
 80023f2:	7ae8      	ldrb	r0, [r5, #11]
 80023f4:	435e      	muls	r6, r3
 80023f6:	1830      	adds	r0, r6, r0
 80023f8:	f7ff f924 	bl	8001644 <__aeabi_i2f>
 80023fc:	492c      	ldr	r1, [pc, #176]	@ (80024b0 <getICM20948_ACCEL_GYRO_TEMPdata+0x170>)
 80023fe:	f7fe fecf 	bl	80011a0 <__aeabi_fdiv>
 8002402:	9005      	str	r0, [sp, #20]

    temp_out = (((accel_gyro_data[12] << 8) + accel_gyro_data[13] - 0) / TEMP_SENSITIVITY) + 21; // Degrees Celcius
 8002404:	89a8      	ldrh	r0, [r5, #12]

    // BANK 0: Enable I2C master
    // Should still be in BANK 0
    
    do {
      I2C_receive(0x0C, 0x10, &st1, 1);  // read ST1
 8002406:	2501      	movs	r5, #1
    temp_out = (((accel_gyro_data[12] << 8) + accel_gyro_data[13] - 0) / TEMP_SENSITIVITY) + 21; // Degrees Celcius
 8002408:	ba40      	rev16	r0, r0
 800240a:	b280      	uxth	r0, r0
 800240c:	f7ff f91a 	bl	8001644 <__aeabi_i2f>
 8002410:	4928      	ldr	r1, [pc, #160]	@ (80024b4 <getICM20948_ACCEL_GYRO_TEMPdata+0x174>)
 8002412:	f7fe fec5 	bl	80011a0 <__aeabi_fdiv>
 8002416:	4928      	ldr	r1, [pc, #160]	@ (80024b8 <getICM20948_ACCEL_GYRO_TEMPdata+0x178>)
 8002418:	f7fe fd22 	bl	8000e60 <__aeabi_fadd>
 800241c:	9006      	str	r0, [sp, #24]
      I2C_receive(0x0C, 0x10, &st1, 1);  // read ST1
 800241e:	ab08      	add	r3, sp, #32
 8002420:	1d9e      	adds	r6, r3, #6
 8002422:	0032      	movs	r2, r6
 8002424:	002b      	movs	r3, r5
 8002426:	2110      	movs	r1, #16
 8002428:	200c      	movs	r0, #12
 800242a:	f7ff fee1 	bl	80021f0 <I2C_receive>
    } while (!(st1 & 0x01)); // Wait for DRDY flag
 800242e:	7833      	ldrb	r3, [r6, #0]
 8002430:	422b      	tst	r3, r5
 8002432:	d0f4      	beq.n	800241e <getICM20948_ACCEL_GYRO_TEMPdata+0xde>
    I2C_receive(0x0C, MAG_START_REG, buf, 6); // 0x0C I2C address is for the internal magnetometer
 8002434:	ad0a      	add	r5, sp, #40	@ 0x28
 8002436:	002a      	movs	r2, r5
 8002438:	2306      	movs	r3, #6
 800243a:	2111      	movs	r1, #17
 800243c:	200c      	movs	r0, #12
 800243e:	f7ff fed7 	bl	80021f0 <I2C_receive>
    I2C_receive(0x0C, 0x18, &st2, 1);  // read ST2 // TODO handle overflow flags here 
 8002442:	aa08      	add	r2, sp, #32
 8002444:	2301      	movs	r3, #1
 8002446:	3207      	adds	r2, #7
 8002448:	2118      	movs	r1, #24
 800244a:	200c      	movs	r0, #12
 800244c:	f7ff fed0 	bl	80021f0 <I2C_receive>
        // TODO Magnetic overflow  discard values
        mag_overf = 1;
        //return;
    }

    mag_out[0] = mag_raw[0] * 0.15f; // uT
 8002450:	2300      	movs	r3, #0
 8002452:	5ee8      	ldrsh	r0, [r5, r3]
 8002454:	f7ff f8f6 	bl	8001644 <__aeabi_i2f>
 8002458:	4918      	ldr	r1, [pc, #96]	@ (80024bc <getICM20948_ACCEL_GYRO_TEMPdata+0x17c>)
 800245a:	f7fe ffb3 	bl	80013c4 <__aeabi_fmul>
 800245e:	9007      	str	r0, [sp, #28]
    mag_out[1] = mag_raw[1] * 0.15f; // uT
 8002460:	2302      	movs	r3, #2
 8002462:	5ee8      	ldrsh	r0, [r5, r3]
 8002464:	f7ff f8ee 	bl	8001644 <__aeabi_i2f>
 8002468:	4914      	ldr	r1, [pc, #80]	@ (80024bc <getICM20948_ACCEL_GYRO_TEMPdata+0x17c>)
 800246a:	f7fe ffab 	bl	80013c4 <__aeabi_fmul>
 800246e:	1c06      	adds	r6, r0, #0
    mag_out[2] = mag_raw[2] * 0.15f; // uT
 8002470:	2304      	movs	r3, #4
 8002472:	5ee8      	ldrsh	r0, [r5, r3]
 8002474:	f7ff f8e6 	bl	8001644 <__aeabi_i2f>
 8002478:	4910      	ldr	r1, [pc, #64]	@ (80024bc <getICM20948_ACCEL_GYRO_TEMPdata+0x17c>)
 800247a:	f7fe ffa3 	bl	80013c4 <__aeabi_fmul>
    
    ICM_data[0] = accel_out[0];
 800247e:	9b00      	ldr	r3, [sp, #0]
    ICM_data[3] = gyro_out[0];
    ICM_data[4] = gyro_out[1];
    ICM_data[5] = gyro_out[2];
    ICM_data[6] = temp_out;
    ICM_data[7] = mag_out[0];
    ICM_data[8] = mag_out[1];
 8002480:	6226      	str	r6, [r4, #32]
    ICM_data[0] = accel_out[0];
 8002482:	6023      	str	r3, [r4, #0]
    ICM_data[1] = accel_out[1];
 8002484:	9b01      	ldr	r3, [sp, #4]
    ICM_data[9] = mag_out[2];
 8002486:	6260      	str	r0, [r4, #36]	@ 0x24
    ICM_data[1] = accel_out[1];
 8002488:	6063      	str	r3, [r4, #4]
    ICM_data[2] = accel_out[2];
 800248a:	9b02      	ldr	r3, [sp, #8]
 800248c:	60a3      	str	r3, [r4, #8]
    ICM_data[3] = gyro_out[0];
 800248e:	9b03      	ldr	r3, [sp, #12]
 8002490:	60e3      	str	r3, [r4, #12]
    ICM_data[4] = gyro_out[1];
 8002492:	9b04      	ldr	r3, [sp, #16]
 8002494:	6123      	str	r3, [r4, #16]
    ICM_data[5] = gyro_out[2];
 8002496:	9b05      	ldr	r3, [sp, #20]
 8002498:	6163      	str	r3, [r4, #20]
    ICM_data[6] = temp_out;
 800249a:	9b06      	ldr	r3, [sp, #24]
 800249c:	61a3      	str	r3, [r4, #24]
    ICM_data[7] = mag_out[0];
 800249e:	9b07      	ldr	r3, [sp, #28]
 80024a0:	61e3      	str	r3, [r4, #28]
 80024a2:	b010      	add	sp, #64	@ 0x40
 80024a4:	bd70      	pop	{r4, r5, r6, pc}
 80024a6:	46c0      	nop			@ (mov r8, r8)
 80024a8:	51eb851f 	.word	0x51eb851f
 80024ac:	40239eb8 	.word	0x40239eb8
 80024b0:	41833333 	.word	0x41833333
 80024b4:	43a8ef5c 	.word	0x43a8ef5c
 80024b8:	41a80000 	.word	0x41a80000
 80024bc:	3e19999a 	.word	0x3e19999a

080024c0 <Reset_Handler>:

  .section .text.Reset_Handler
  .weak Reset_Handler
  .type Reset_Handler, %function
Reset_Handler:
  ldr   r0, =_estack
 80024c0:	480d      	ldr	r0, [pc, #52]	@ (80024f8 <LoopForever+0x2>)
  mov   sp, r0          /* set stack pointer */
 80024c2:	4685      	mov	sp, r0

/* Copy the data segment initializers from flash to SRAM */
  movs r1, #0
 80024c4:	2100      	movs	r1, #0
  b LoopCopyDataInit
 80024c6:	e003      	b.n	80024d0 <LoopCopyDataInit>

080024c8 <CopyDataInit>:

CopyDataInit:
  ldr r3, =_sidata
 80024c8:	4b0c      	ldr	r3, [pc, #48]	@ (80024fc <LoopForever+0x6>)
  ldr r3, [r3, r1]
 80024ca:	585b      	ldr	r3, [r3, r1]
  str r3, [r0, r1]
 80024cc:	5043      	str	r3, [r0, r1]
  adds r1, r1, #4
 80024ce:	3104      	adds	r1, #4

080024d0 <LoopCopyDataInit>:

LoopCopyDataInit:
  ldr r0, =_sdata
 80024d0:	480b      	ldr	r0, [pc, #44]	@ (8002500 <LoopForever+0xa>)
  ldr r3, =_edata
 80024d2:	4b0c      	ldr	r3, [pc, #48]	@ (8002504 <LoopForever+0xe>)
  adds r2, r0, r1
 80024d4:	1842      	adds	r2, r0, r1
  cmp r2, r3
 80024d6:	429a      	cmp	r2, r3
  bcc CopyDataInit
 80024d8:	d3f6      	bcc.n	80024c8 <CopyDataInit>
  ldr r2, =_sbss
 80024da:	4a0b      	ldr	r2, [pc, #44]	@ (8002508 <LoopForever+0x12>)
  b LoopFillZerobss
 80024dc:	e002      	b.n	80024e4 <LoopFillZerobss>

080024de <FillZerobss>:
/* Zero fill the bss segment. */
FillZerobss:
  movs r3, #0
 80024de:	2300      	movs	r3, #0
  str  r3, [r2]
 80024e0:	6013      	str	r3, [r2, #0]
  adds r2, r2, #4
 80024e2:	3204      	adds	r2, #4

080024e4 <LoopFillZerobss>:


LoopFillZerobss:
  ldr r3, = _ebss
 80024e4:	4b09      	ldr	r3, [pc, #36]	@ (800250c <LoopForever+0x16>)
  cmp r2, r3
 80024e6:	429a      	cmp	r2, r3
  bcc FillZerobss
 80024e8:	d3f9      	bcc.n	80024de <FillZerobss>

/* Call the clock system intitialization function.*/
    bl  SystemInit
 80024ea:	f7ff fd77 	bl	8001fdc <SystemInit>
/* Call static constructors */
    bl __libc_init_array
 80024ee:	f7ff fcff 	bl	8001ef0 <__libc_init_array>
/* Call the application's entry point.*/
  bl main
 80024f2:	f7ff fd4d 	bl	8001f90 <main>

080024f6 <LoopForever>:
  
LoopForever:
    b LoopForever
 80024f6:	e7fe      	b.n	80024f6 <LoopForever>
  ldr   r0, =_estack
 80024f8:	20002000 	.word	0x20002000
  ldr r3, =_sidata
 80024fc:	080025b8 	.word	0x080025b8
  ldr r0, =_sdata
 8002500:	20000000 	.word	0x20000000
  ldr r3, =_edata
 8002504:	20000008 	.word	0x20000008
  ldr r2, =_sbss
 8002508:	20000008 	.word	0x20000008
  ldr r3, = _ebss
 800250c:	20000034 	.word	0x20000034

08002510 <ADC1_COMP_IRQHandler>:
 * @retval : None
*/
    .section .text.Default_Handler,"ax",%progbits
Default_Handler:
Infinite_Loop:
  b Infinite_Loop
 8002510:	e7fe      	b.n	8002510 <ADC1_COMP_IRQHandler>
	...

08002514 <APBAHBPrescTable>:
 8002514:	0000 0000 0201 0403 0201 0403 0706 0908     ................
 8002524:	1354 0800 123a 0800 1264 0800 12ca 0800     T...:...d.......
 8002534:	1264 0800 12fe 0800 1264 0800 12ca 0800     d.......d.......
 8002544:	123a 0800 123a 0800 12fe 0800 12ca 0800     :...:...........
 8002554:	1250 0800 1250 0800 1250 0800 1308 0800     P...P...P.......
 8002564:	123a 0800 123a 0800 1264 0800 138c 0800     :...:...d.......
 8002574:	1264 0800 12fe 0800 1264 0800 138c 0800     d.......d.......
 8002584:	123a 0800 123a 0800 12fe 0800 138c 0800     :...:...........
 8002594:	1250 0800 1250 0800 1250 0800               P...P...P...

080025a0 <_init>:
 80025a0:	b5f8      	push	{r3, r4, r5, r6, r7, lr}
 80025a2:	46c0      	nop			@ (mov r8, r8)
 80025a4:	bcf8      	pop	{r3, r4, r5, r6, r7}
 80025a6:	bc08      	pop	{r3}
 80025a8:	469e      	mov	lr, r3
 80025aa:	4770      	bx	lr

080025ac <_fini>:
 80025ac:	b5f8      	push	{r3, r4, r5, r6, r7, lr}
 80025ae:	46c0      	nop			@ (mov r8, r8)
 80025b0:	bcf8      	pop	{r3, r4, r5, r6, r7}
 80025b2:	bc08      	pop	{r3}
 80025b4:	469e      	mov	lr, r3
 80025b6:	4770      	bx	lr
